
mult_AS_1:     formato de ficheiro elf32-littleriscv


Desmontagem da secção .text:

000100b4 <exit>:
   100b4:	ff010113          	addi	sp,sp,-16
   100b8:	00000593          	li	a1,0
   100bc:	00812423          	sw	s0,8(sp)
   100c0:	00112623          	sw	ra,12(sp)
   100c4:	00050413          	mv	s0,a0
   100c8:	4510b0ef          	jal	ra,1bd18 <__call_exitprocs>
   100cc:	1b81a503          	lw	a0,440(gp) # 420e8 <_global_impure_ptr>
   100d0:	03c52783          	lw	a5,60(a0)
   100d4:	00078463          	beqz	a5,100dc <exit+0x28>
   100d8:	000780e7          	jalr	a5
   100dc:	00040513          	mv	a0,s0
   100e0:	5a9160ef          	jal	ra,26e88 <_exit>

000100e4 <register_fini>:
   100e4:	00000793          	li	a5,0
   100e8:	00078863          	beqz	a5,100f8 <register_fini+0x14>
   100ec:	0001c537          	lui	a0,0x1c
   100f0:	e9450513          	addi	a0,a0,-364 # 1be94 <__libc_fini_array>
   100f4:	5d51406f          	j	24ec8 <atexit>
   100f8:	00008067          	ret

000100fc <_start>:
   100fc:	00032197          	auipc	gp,0x32
   10100:	e3418193          	addi	gp,gp,-460 # 41f30 <__global_pointer$>
   10104:	1cc18513          	addi	a0,gp,460 # 420fc <__bss_start>
   10108:	23418613          	addi	a2,gp,564 # 42164 <__BSS_END__>
   1010c:	40a60633          	sub	a2,a2,a0
   10110:	00000593          	li	a1,0
   10114:	031080ef          	jal	ra,18944 <memset>
   10118:	00015517          	auipc	a0,0x15
   1011c:	db050513          	addi	a0,a0,-592 # 24ec8 <atexit>
   10120:	00050863          	beqz	a0,10130 <_start+0x34>
   10124:	0000c517          	auipc	a0,0xc
   10128:	d7050513          	addi	a0,a0,-656 # 1be94 <__libc_fini_array>
   1012c:	59d140ef          	jal	ra,24ec8 <atexit>
   10130:	561070ef          	jal	ra,17e90 <__libc_init_array>
   10134:	00012503          	lw	a0,0(sp)
   10138:	00410593          	addi	a1,sp,4
   1013c:	00000613          	li	a2,0
   10140:	06c000ef          	jal	ra,101ac <main>
   10144:	f71ff06f          	j	100b4 <exit>

00010148 <__do_global_dtors_aux>:
   10148:	ff010113          	addi	sp,sp,-16
   1014c:	00812423          	sw	s0,8(sp)
   10150:	1f01c783          	lbu	a5,496(gp) # 42120 <completed.1>
   10154:	00112623          	sw	ra,12(sp)
   10158:	02079263          	bnez	a5,1017c <__do_global_dtors_aux+0x34>
   1015c:	00000793          	li	a5,0
   10160:	00078a63          	beqz	a5,10174 <__do_global_dtors_aux+0x2c>
   10164:	00041537          	lui	a0,0x41
   10168:	02050513          	addi	a0,a0,32 # 41020 <__EH_FRAME_BEGIN__>
   1016c:	00000097          	auipc	ra,0x0
   10170:	000000e7          	jalr	zero # 0 <exit-0x100b4>
   10174:	00100793          	li	a5,1
   10178:	1ef18823          	sb	a5,496(gp) # 42120 <completed.1>
   1017c:	00c12083          	lw	ra,12(sp)
   10180:	00812403          	lw	s0,8(sp)
   10184:	01010113          	addi	sp,sp,16
   10188:	00008067          	ret

0001018c <frame_dummy>:
   1018c:	00000793          	li	a5,0
   10190:	00078c63          	beqz	a5,101a8 <frame_dummy+0x1c>
   10194:	00041537          	lui	a0,0x41
   10198:	1f418593          	addi	a1,gp,500 # 42124 <object.0>
   1019c:	02050513          	addi	a0,a0,32 # 41020 <__EH_FRAME_BEGIN__>
   101a0:	00000317          	auipc	t1,0x0
   101a4:	00000067          	jr	zero # 0 <exit-0x100b4>
   101a8:	00008067          	ret

000101ac <main>:
   101ac:	81010113          	addi	sp,sp,-2032
   101b0:	7e112623          	sw	ra,2028(sp)
   101b4:	7e812423          	sw	s0,2024(sp)
   101b8:	7e912223          	sw	s1,2020(sp)
   101bc:	7f212023          	sw	s2,2016(sp)
   101c0:	7d312e23          	sw	s3,2012(sp)
   101c4:	7d412c23          	sw	s4,2008(sp)
   101c8:	7d512a23          	sw	s5,2004(sp)
   101cc:	7d612823          	sw	s6,2000(sp)
   101d0:	7d712623          	sw	s7,1996(sp)
   101d4:	7d812423          	sw	s8,1992(sp)
   101d8:	7d912223          	sw	s9,1988(sp)
   101dc:	7da12023          	sw	s10,1984(sp)
   101e0:	7bb12e23          	sw	s11,1980(sp)
   101e4:	00027537          	lui	a0,0x27
   101e8:	96050513          	addi	a0,a0,-1696 # 26960 <_raise_r>
   101ec:	40a10133          	sub	sp,sp,a0
   101f0:	0003f537          	lui	a0,0x3f
   101f4:	13050513          	addi	a0,a0,304 # 3f130 <__trunctfdf2+0x13c34>
   101f8:	1f1080ef          	jal	ra,18be8 <puts>
   101fc:	00000a13          	li	s4,0
   10200:	00000993          	li	s3,0
   10204:	00000913          	li	s2,0
   10208:	00000a93          	li	s5,0
   1020c:	06400493          	li	s1,100
   10210:	00014537          	lui	a0,0x14
   10214:	89050513          	addi	a0,a0,-1904 # 13890 <fasttanfull+0x1c8>
   10218:	00a10533          	add	a0,sp,a0
   1021c:	00050c13          	mv	s8,a0
   10220:	06400613          	li	a2,100
   10224:	00090513          	mv	a0,s2
   10228:	000a8593          	mv	a1,s5
   1022c:	00000693          	li	a3,0
   10230:	618060ef          	jal	ra,16848 <__muldi3>
   10234:	00000413          	li	s0,0
   10238:	00000593          	li	a1,0
   1023c:	000a0713          	mv	a4,s4
   10240:	00098693          	mv	a3,s3
   10244:	00170793          	addi	a5,a4,1
   10248:	00e7b733          	sltu	a4,a5,a4
   1024c:	00e686b3          	add	a3,a3,a4
   10250:	00a40733          	add	a4,s0,a0
   10254:	00371713          	slli	a4,a4,0x3
   10258:	00ec0733          	add	a4,s8,a4
   1025c:	00f72023          	sw	a5,0(a4)
   10260:	00476713          	ori	a4,a4,4
   10264:	00d72023          	sw	a3,0(a4)
   10268:	00140613          	addi	a2,s0,1
   1026c:	00863733          	sltu	a4,a2,s0
   10270:	00e585b3          	add	a1,a1,a4
   10274:	00060413          	mv	s0,a2
   10278:	00078713          	mv	a4,a5
   1027c:	fc9614e3          	bne	a2,s1,10244 <main+0x98>
   10280:	064a0513          	addi	a0,s4,100
   10284:	014535b3          	sltu	a1,a0,s4
   10288:	00b989b3          	add	s3,s3,a1
   1028c:	00190593          	addi	a1,s2,1
   10290:	0125b633          	sltu	a2,a1,s2
   10294:	00ca8ab3          	add	s5,s5,a2
   10298:	00050a13          	mv	s4,a0
   1029c:	00058913          	mv	s2,a1
   102a0:	f89590e3          	bne	a1,s1,10220 <main+0x74>
   102a4:	00000a13          	li	s4,0
   102a8:	00000993          	li	s3,0
   102ac:	00000913          	li	s2,0
   102b0:	00000a93          	li	s5,0
   102b4:	06400493          	li	s1,100
   102b8:	01010c93          	addi	s9,sp,16
   102bc:	06400613          	li	a2,100
   102c0:	00090513          	mv	a0,s2
   102c4:	000a8593          	mv	a1,s5
   102c8:	00000693          	li	a3,0
   102cc:	57c060ef          	jal	ra,16848 <__muldi3>
   102d0:	00000413          	li	s0,0
   102d4:	00000593          	li	a1,0
   102d8:	000a0713          	mv	a4,s4
   102dc:	00098693          	mv	a3,s3
   102e0:	00170793          	addi	a5,a4,1
   102e4:	00e7b733          	sltu	a4,a5,a4
   102e8:	00e686b3          	add	a3,a3,a4
   102ec:	00a40733          	add	a4,s0,a0
   102f0:	00371713          	slli	a4,a4,0x3
   102f4:	00ec8733          	add	a4,s9,a4
   102f8:	00f72023          	sw	a5,0(a4)
   102fc:	00476713          	ori	a4,a4,4
   10300:	00d72023          	sw	a3,0(a4)
   10304:	00140613          	addi	a2,s0,1
   10308:	00863733          	sltu	a4,a2,s0
   1030c:	00e585b3          	add	a1,a1,a4
   10310:	00060413          	mv	s0,a2
   10314:	00078713          	mv	a4,a5
   10318:	fc9614e3          	bne	a2,s1,102e0 <main+0x134>
   1031c:	064a0513          	addi	a0,s4,100
   10320:	014535b3          	sltu	a1,a0,s4
   10324:	00b989b3          	add	s3,s3,a1
   10328:	00190593          	addi	a1,s2,1
   1032c:	0125b633          	sltu	a2,a1,s2
   10330:	00ca8ab3          	add	s5,s5,a2
   10334:	00050a13          	mv	s4,a0
   10338:	00058913          	mv	s2,a1
   1033c:	f89590e3          	bne	a1,s1,102bc <main+0x110>
   10340:	00000493          	li	s1,0
   10344:	00000593          	li	a1,0
   10348:	00000a13          	li	s4,0
   1034c:	06400d13          	li	s10,100
   10350:	0002c537          	lui	a0,0x2c
   10354:	8b050513          	addi	a0,a0,-1872 # 2b8b0 <__trunctfdf2+0x3b4>
   10358:	00a12423          	sw	a0,8(sp)
   1035c:	01c0006f          	j	10378 <main+0x1cc>
   10360:	00148513          	addi	a0,s1,1
   10364:	009535b3          	sltu	a1,a0,s1
   10368:	00412603          	lw	a2,4(sp)
   1036c:	00b605b3          	add	a1,a2,a1
   10370:	00050493          	mv	s1,a0
   10374:	0fa50e63          	beq	a0,s10,10470 <main+0x2c4>
   10378:	0014f513          	andi	a0,s1,1
   1037c:	00b12223          	sw	a1,4(sp)
   10380:	fe0510e3          	bnez	a0,10360 <main+0x1b4>
   10384:	06400613          	li	a2,100
   10388:	00048513          	mv	a0,s1
   1038c:	00000693          	li	a3,0
   10390:	4b8060ef          	jal	ra,16848 <__muldi3>
   10394:	00050a93          	mv	s5,a0
   10398:	00000d93          	li	s11,0
   1039c:	00000913          	li	s2,0
   103a0:	00912623          	sw	s1,12(sp)
   103a4:	00000493          	li	s1,0
   103a8:	00000413          	li	s0,0
   103ac:	00000993          	li	s3,0
   103b0:	01548533          	add	a0,s1,s5
   103b4:	00351513          	slli	a0,a0,0x3
   103b8:	00ac0533          	add	a0,s8,a0
   103bc:	00052b03          	lw	s6,0(a0)
   103c0:	00456513          	ori	a0,a0,4
   103c4:	00052b83          	lw	s7,0(a0)
   103c8:	06400613          	li	a2,100
   103cc:	00048513          	mv	a0,s1
   103d0:	00040593          	mv	a1,s0
   103d4:	00000693          	li	a3,0
   103d8:	470060ef          	jal	ra,16848 <__muldi3>
   103dc:	01b50533          	add	a0,a0,s11
   103e0:	00351513          	slli	a0,a0,0x3
   103e4:	00ac85b3          	add	a1,s9,a0
   103e8:	0005a503          	lw	a0,0(a1)
   103ec:	0045e593          	ori	a1,a1,4
   103f0:	0005a583          	lw	a1,0(a1)
   103f4:	000b0613          	mv	a2,s6
   103f8:	000b8693          	mv	a3,s7
   103fc:	44c060ef          	jal	ra,16848 <__muldi3>
   10400:	013509b3          	add	s3,a0,s3
   10404:	00148513          	addi	a0,s1,1
   10408:	009535b3          	sltu	a1,a0,s1
   1040c:	00b40433          	add	s0,s0,a1
   10410:	00050493          	mv	s1,a0
   10414:	f9a51ee3          	bne	a0,s10,103b0 <main+0x204>
   10418:	41f9d413          	srai	s0,s3,0x1f
   1041c:	32000593          	li	a1,800
   10420:	00c12483          	lw	s1,12(sp)
   10424:	00048513          	mv	a0,s1
   10428:	3fc060ef          	jal	ra,16824 <__mulsi3>
   1042c:	003d9593          	slli	a1,s11,0x3
   10430:	00b50533          	add	a0,a0,a1
   10434:	00812583          	lw	a1,8(sp)
   10438:	00b50533          	add	a0,a0,a1
   1043c:	00452583          	lw	a1,4(a0)
   10440:	00052503          	lw	a0,0(a0)
   10444:	00b445b3          	xor	a1,s0,a1
   10448:	00a9c533          	xor	a0,s3,a0
   1044c:	00b56533          	or	a0,a0,a1
   10450:	00153513          	seqz	a0,a0
   10454:	01450a33          	add	s4,a0,s4
   10458:	001d8513          	addi	a0,s11,1
   1045c:	01b535b3          	sltu	a1,a0,s11
   10460:	00b90933          	add	s2,s2,a1
   10464:	00050d93          	mv	s11,a0
   10468:	f3a51ee3          	bne	a0,s10,103a4 <main+0x1f8>
   1046c:	ef5ff06f          	j	10360 <main+0x1b4>
   10470:	0002c537          	lui	a0,0x2c
   10474:	87e50513          	addi	a0,a0,-1922 # 2b87e <__trunctfdf2+0x382>
   10478:	000a0593          	mv	a1,s4
   1047c:	654080ef          	jal	ra,18ad0 <printf>
   10480:	0002c537          	lui	a0,0x2c
   10484:	88e50513          	addi	a0,a0,-1906 # 2b88e <__trunctfdf2+0x392>
   10488:	760080ef          	jal	ra,18be8 <puts>
   1048c:	00000513          	li	a0,0
   10490:	000275b7          	lui	a1,0x27
   10494:	96058593          	addi	a1,a1,-1696 # 26960 <_raise_r>
   10498:	00b10133          	add	sp,sp,a1
   1049c:	7bc12d83          	lw	s11,1980(sp)
   104a0:	7c012d03          	lw	s10,1984(sp)
   104a4:	7c412c83          	lw	s9,1988(sp)
   104a8:	7c812c03          	lw	s8,1992(sp)
   104ac:	7cc12b83          	lw	s7,1996(sp)
   104b0:	7d012b03          	lw	s6,2000(sp)
   104b4:	7d412a83          	lw	s5,2004(sp)
   104b8:	7d812a03          	lw	s4,2008(sp)
   104bc:	7dc12983          	lw	s3,2012(sp)
   104c0:	7e012903          	lw	s2,2016(sp)
   104c4:	7e412483          	lw	s1,2020(sp)
   104c8:	7e812403          	lw	s0,2024(sp)
   104cc:	7ec12083          	lw	ra,2028(sp)
   104d0:	7f010113          	addi	sp,sp,2032
   104d4:	00008067          	ret

000104d8 <accept_roi_begin>:
   104d8:	fe010113          	addi	sp,sp,-32
   104dc:	00112e23          	sw	ra,28(sp)
   104e0:	00812c23          	sw	s0,24(sp)
   104e4:	00912a23          	sw	s1,20(sp)
   104e8:	00010513          	mv	a0,sp
   104ec:	00000593          	li	a1,0
   104f0:	51d080ef          	jal	ra,1920c <gettimeofday>
   104f4:	00012503          	lw	a0,0(sp)
   104f8:	00412583          	lw	a1,4(sp)
   104fc:	555040ef          	jal	ra,15250 <__floatdidf>
   10500:	00812603          	lw	a2,8(sp)
   10504:	00c12683          	lw	a3,12(sp)
   10508:	00050413          	mv	s0,a0
   1050c:	00058493          	mv	s1,a1
   10510:	00060513          	mv	a0,a2
   10514:	00068593          	mv	a1,a3
   10518:	539040ef          	jal	ra,15250 <__floatdidf>
   1051c:	a0b5f637          	lui	a2,0xa0b5f
   10520:	d8d60613          	addi	a2,a2,-627 # a0b5ed8d <__BSS_END__+0xa0b1cc29>
   10524:	3eb0c6b7          	lui	a3,0x3eb0c
   10528:	6f768693          	addi	a3,a3,1783 # 3eb0c6f7 <__BSS_END__+0x3eaca593>
   1052c:	669030ef          	jal	ra,14394 <__muldf3>
   10530:	00050613          	mv	a2,a0
   10534:	00058693          	mv	a3,a1
   10538:	00040513          	mv	a0,s0
   1053c:	00048593          	mv	a1,s1
   10540:	678030ef          	jal	ra,13bb8 <__adddf3>
   10544:	1d018693          	addi	a3,gp,464 # 42100 <time_begin>
   10548:	00b6a223          	sw	a1,4(a3)
   1054c:	1ca1a823          	sw	a0,464(gp) # 42100 <time_begin>
   10550:	01412483          	lw	s1,20(sp)
   10554:	01812403          	lw	s0,24(sp)
   10558:	01c12083          	lw	ra,28(sp)
   1055c:	02010113          	addi	sp,sp,32
   10560:	00008067          	ret

00010564 <accept_roi_end>:
   10564:	fe010113          	addi	sp,sp,-32
   10568:	00112e23          	sw	ra,28(sp)
   1056c:	00812c23          	sw	s0,24(sp)
   10570:	00912a23          	sw	s1,20(sp)
   10574:	01212823          	sw	s2,16(sp)
   10578:	00010513          	mv	a0,sp
   1057c:	00000593          	li	a1,0
   10580:	48d080ef          	jal	ra,1920c <gettimeofday>
   10584:	00012503          	lw	a0,0(sp)
   10588:	00412583          	lw	a1,4(sp)
   1058c:	4c5040ef          	jal	ra,15250 <__floatdidf>
   10590:	00812603          	lw	a2,8(sp)
   10594:	00c12683          	lw	a3,12(sp)
   10598:	00050413          	mv	s0,a0
   1059c:	00058493          	mv	s1,a1
   105a0:	00060513          	mv	a0,a2
   105a4:	00068593          	mv	a1,a3
   105a8:	4a9040ef          	jal	ra,15250 <__floatdidf>
   105ac:	a0b5f637          	lui	a2,0xa0b5f
   105b0:	d8d60613          	addi	a2,a2,-627 # a0b5ed8d <__BSS_END__+0xa0b1cc29>
   105b4:	3eb0c6b7          	lui	a3,0x3eb0c
   105b8:	6f768693          	addi	a3,a3,1783 # 3eb0c6f7 <__BSS_END__+0x3eaca593>
   105bc:	5d9030ef          	jal	ra,14394 <__muldf3>
   105c0:	00050613          	mv	a2,a0
   105c4:	00058693          	mv	a3,a1
   105c8:	00040513          	mv	a0,s0
   105cc:	00048593          	mv	a1,s1
   105d0:	5e8030ef          	jal	ra,13bb8 <__adddf3>
   105d4:	1d01a603          	lw	a2,464(gp) # 42100 <time_begin>
   105d8:	1d018693          	addi	a3,gp,464 # 42100 <time_begin>
   105dc:	0046a683          	lw	a3,4(a3)
   105e0:	480040ef          	jal	ra,14a60 <__subdf3>
   105e4:	00050913          	mv	s2,a0
   105e8:	00058493          	mv	s1,a1
   105ec:	0002c537          	lui	a0,0x2c
   105f0:	89050513          	addi	a0,a0,-1904 # 2b890 <__trunctfdf2+0x394>
   105f4:	0002c5b7          	lui	a1,0x2c
   105f8:	8a058593          	addi	a1,a1,-1888 # 2b8a0 <__trunctfdf2+0x3a4>
   105fc:	56d060ef          	jal	ra,17368 <fopen>
   10600:	00050413          	mv	s0,a0
   10604:	0002c537          	lui	a0,0x2c
   10608:	8a250593          	addi	a1,a0,-1886 # 2b8a2 <__trunctfdf2+0x3a6>
   1060c:	00040513          	mv	a0,s0
   10610:	00090613          	mv	a2,s2
   10614:	00048693          	mv	a3,s1
   10618:	59d060ef          	jal	ra,173b4 <fprintf>
   1061c:	00040513          	mv	a0,s0
   10620:	538060ef          	jal	ra,16b58 <fclose>
   10624:	01012903          	lw	s2,16(sp)
   10628:	01412483          	lw	s1,20(sp)
   1062c:	01812403          	lw	s0,24(sp)
   10630:	01c12083          	lw	ra,28(sp)
   10634:	02010113          	addi	sp,sp,32
   10638:	00008067          	ret

0001063c <fastpow2>:
   1063c:	ff010113          	addi	sp,sp,-16
   10640:	00112623          	sw	ra,12(sp)
   10644:	00812423          	sw	s0,8(sp)
   10648:	00912223          	sw	s1,4(sp)
   1064c:	01212023          	sw	s2,0(sp)
   10650:	00050493          	mv	s1,a0
   10654:	00000593          	li	a1,0
   10658:	674050ef          	jal	ra,15ccc <__lesf2>
   1065c:	41f55513          	srai	a0,a0,0x1f
   10660:	3f8005b7          	lui	a1,0x3f800
   10664:	00b57933          	and	s2,a0,a1
   10668:	c2fc05b7          	lui	a1,0xc2fc0
   1066c:	c2fc0437          	lui	s0,0xc2fc0
   10670:	00048513          	mv	a0,s1
   10674:	658050ef          	jal	ra,15ccc <__lesf2>
   10678:	00054463          	bltz	a0,10680 <fastpow2+0x44>
   1067c:	00048413          	mv	s0,s1
   10680:	00040513          	mv	a0,s0
   10684:	6e5050ef          	jal	ra,16568 <__fixsfsi>
   10688:	7b5050ef          	jal	ra,1663c <__floatsisf>
   1068c:	00050593          	mv	a1,a0
   10690:	00040513          	mv	a0,s0
   10694:	269050ef          	jal	ra,160fc <__subsf3>
   10698:	00050593          	mv	a1,a0
   1069c:	00090513          	mv	a0,s2
   106a0:	595040ef          	jal	ra,15434 <__addsf3>
   106a4:	00050493          	mv	s1,a0
   106a8:	42f29537          	lui	a0,0x42f29
   106ac:	c5150593          	addi	a1,a0,-943 # 42f28c51 <__BSS_END__+0x42ee6aed>
   106b0:	00040513          	mv	a0,s0
   106b4:	581040ef          	jal	ra,15434 <__addsf3>
   106b8:	00050413          	mv	s0,a0
   106bc:	409af537          	lui	a0,0x409af
   106c0:	5f850513          	addi	a0,a0,1528 # 409af5f8 <__BSS_END__+0x4096d494>
   106c4:	00048593          	mv	a1,s1
   106c8:	235050ef          	jal	ra,160fc <__subsf3>
   106cc:	00050593          	mv	a1,a0
   106d0:	41ddd537          	lui	a0,0x41ddd
   106d4:	2fe50513          	addi	a0,a0,766 # 41ddd2fe <__BSS_END__+0x41d9b19a>
   106d8:	1b0050ef          	jal	ra,15888 <__divsf3>
   106dc:	00050593          	mv	a1,a0
   106e0:	00040513          	mv	a0,s0
   106e4:	551040ef          	jal	ra,15434 <__addsf3>
   106e8:	00050413          	mv	s0,a0
   106ec:	bfbec537          	lui	a0,0xbfbec
   106f0:	c8d50593          	addi	a1,a0,-883 # bfbebc8d <__BSS_END__+0xbfba9b29>
   106f4:	00048513          	mv	a0,s1
   106f8:	68c050ef          	jal	ra,15d84 <__mulsf3>
   106fc:	00050593          	mv	a1,a0
   10700:	00040513          	mv	a0,s0
   10704:	531040ef          	jal	ra,15434 <__addsf3>
   10708:	4b0005b7          	lui	a1,0x4b000
   1070c:	678050ef          	jal	ra,15d84 <__mulsf3>
   10710:	6c9050ef          	jal	ra,165d8 <__fixunssfsi>
   10714:	00012903          	lw	s2,0(sp)
   10718:	00412483          	lw	s1,4(sp)
   1071c:	00812403          	lw	s0,8(sp)
   10720:	00c12083          	lw	ra,12(sp)
   10724:	01010113          	addi	sp,sp,16
   10728:	00008067          	ret

0001072c <fastexp>:
   1072c:	ff010113          	addi	sp,sp,-16
   10730:	00112623          	sw	ra,12(sp)
   10734:	00812423          	sw	s0,8(sp)
   10738:	00912223          	sw	s1,4(sp)
   1073c:	01212023          	sw	s2,0(sp)
   10740:	3fb8b5b7          	lui	a1,0x3fb8b
   10744:	a3b58593          	addi	a1,a1,-1477 # 3fb8aa3b <__BSS_END__+0x3fb488d7>
   10748:	63c050ef          	jal	ra,15d84 <__mulsf3>
   1074c:	00050493          	mv	s1,a0
   10750:	00000593          	li	a1,0
   10754:	578050ef          	jal	ra,15ccc <__lesf2>
   10758:	41f55513          	srai	a0,a0,0x1f
   1075c:	3f8005b7          	lui	a1,0x3f800
   10760:	00b57933          	and	s2,a0,a1
   10764:	c2fc05b7          	lui	a1,0xc2fc0
   10768:	c2fc0437          	lui	s0,0xc2fc0
   1076c:	00048513          	mv	a0,s1
   10770:	55c050ef          	jal	ra,15ccc <__lesf2>
   10774:	00054463          	bltz	a0,1077c <fastexp+0x50>
   10778:	00048413          	mv	s0,s1
   1077c:	00040513          	mv	a0,s0
   10780:	5e9050ef          	jal	ra,16568 <__fixsfsi>
   10784:	6b9050ef          	jal	ra,1663c <__floatsisf>
   10788:	00050593          	mv	a1,a0
   1078c:	00040513          	mv	a0,s0
   10790:	16d050ef          	jal	ra,160fc <__subsf3>
   10794:	00050593          	mv	a1,a0
   10798:	00090513          	mv	a0,s2
   1079c:	499040ef          	jal	ra,15434 <__addsf3>
   107a0:	00050493          	mv	s1,a0
   107a4:	42f29537          	lui	a0,0x42f29
   107a8:	c5150593          	addi	a1,a0,-943 # 42f28c51 <__BSS_END__+0x42ee6aed>
   107ac:	00040513          	mv	a0,s0
   107b0:	485040ef          	jal	ra,15434 <__addsf3>
   107b4:	00050413          	mv	s0,a0
   107b8:	409af537          	lui	a0,0x409af
   107bc:	5f850513          	addi	a0,a0,1528 # 409af5f8 <__BSS_END__+0x4096d494>
   107c0:	00048593          	mv	a1,s1
   107c4:	139050ef          	jal	ra,160fc <__subsf3>
   107c8:	00050593          	mv	a1,a0
   107cc:	41ddd537          	lui	a0,0x41ddd
   107d0:	2fe50513          	addi	a0,a0,766 # 41ddd2fe <__BSS_END__+0x41d9b19a>
   107d4:	0b4050ef          	jal	ra,15888 <__divsf3>
   107d8:	00050593          	mv	a1,a0
   107dc:	00040513          	mv	a0,s0
   107e0:	455040ef          	jal	ra,15434 <__addsf3>
   107e4:	00050413          	mv	s0,a0
   107e8:	bfbec537          	lui	a0,0xbfbec
   107ec:	c8d50593          	addi	a1,a0,-883 # bfbebc8d <__BSS_END__+0xbfba9b29>
   107f0:	00048513          	mv	a0,s1
   107f4:	590050ef          	jal	ra,15d84 <__mulsf3>
   107f8:	00050593          	mv	a1,a0
   107fc:	00040513          	mv	a0,s0
   10800:	435040ef          	jal	ra,15434 <__addsf3>
   10804:	4b0005b7          	lui	a1,0x4b000
   10808:	57c050ef          	jal	ra,15d84 <__mulsf3>
   1080c:	5cd050ef          	jal	ra,165d8 <__fixunssfsi>
   10810:	00012903          	lw	s2,0(sp)
   10814:	00412483          	lw	s1,4(sp)
   10818:	00812403          	lw	s0,8(sp)
   1081c:	00c12083          	lw	ra,12(sp)
   10820:	01010113          	addi	sp,sp,16
   10824:	00008067          	ret

00010828 <fasterpow2>:
   10828:	ff010113          	addi	sp,sp,-16
   1082c:	00112623          	sw	ra,12(sp)
   10830:	00812423          	sw	s0,8(sp)
   10834:	00912223          	sw	s1,4(sp)
   10838:	00050493          	mv	s1,a0
   1083c:	c2fc05b7          	lui	a1,0xc2fc0
   10840:	c2fc0437          	lui	s0,0xc2fc0
   10844:	488050ef          	jal	ra,15ccc <__lesf2>
   10848:	00054463          	bltz	a0,10850 <fasterpow2+0x28>
   1084c:	00048413          	mv	s0,s1
   10850:	42fde537          	lui	a0,0x42fde
   10854:	2a950593          	addi	a1,a0,681 # 42fde2a9 <__BSS_END__+0x42f9c145>
   10858:	00040513          	mv	a0,s0
   1085c:	3d9040ef          	jal	ra,15434 <__addsf3>
   10860:	4b0005b7          	lui	a1,0x4b000
   10864:	520050ef          	jal	ra,15d84 <__mulsf3>
   10868:	571050ef          	jal	ra,165d8 <__fixunssfsi>
   1086c:	00412483          	lw	s1,4(sp)
   10870:	00812403          	lw	s0,8(sp)
   10874:	00c12083          	lw	ra,12(sp)
   10878:	01010113          	addi	sp,sp,16
   1087c:	00008067          	ret

00010880 <fasterexp>:
   10880:	ff010113          	addi	sp,sp,-16
   10884:	00112623          	sw	ra,12(sp)
   10888:	00812423          	sw	s0,8(sp)
   1088c:	00912223          	sw	s1,4(sp)
   10890:	3fb8b5b7          	lui	a1,0x3fb8b
   10894:	a3b58593          	addi	a1,a1,-1477 # 3fb8aa3b <__BSS_END__+0x3fb488d7>
   10898:	4ec050ef          	jal	ra,15d84 <__mulsf3>
   1089c:	00050493          	mv	s1,a0
   108a0:	c2fc05b7          	lui	a1,0xc2fc0
   108a4:	c2fc0437          	lui	s0,0xc2fc0
   108a8:	424050ef          	jal	ra,15ccc <__lesf2>
   108ac:	00054463          	bltz	a0,108b4 <fasterexp+0x34>
   108b0:	00048413          	mv	s0,s1
   108b4:	42fde537          	lui	a0,0x42fde
   108b8:	2a950593          	addi	a1,a0,681 # 42fde2a9 <__BSS_END__+0x42f9c145>
   108bc:	00040513          	mv	a0,s0
   108c0:	375040ef          	jal	ra,15434 <__addsf3>
   108c4:	4b0005b7          	lui	a1,0x4b000
   108c8:	4bc050ef          	jal	ra,15d84 <__mulsf3>
   108cc:	50d050ef          	jal	ra,165d8 <__fixunssfsi>
   108d0:	00412483          	lw	s1,4(sp)
   108d4:	00812403          	lw	s0,8(sp)
   108d8:	00c12083          	lw	ra,12(sp)
   108dc:	01010113          	addi	sp,sp,16
   108e0:	00008067          	ret

000108e4 <fastlog2>:
   108e4:	ff010113          	addi	sp,sp,-16
   108e8:	00112623          	sw	ra,12(sp)
   108ec:	00812423          	sw	s0,8(sp)
   108f0:	00912223          	sw	s1,4(sp)
   108f4:	008005b7          	lui	a1,0x800
   108f8:	fff58593          	addi	a1,a1,-1 # 7fffff <__BSS_END__+0x7bde9b>
   108fc:	00b575b3          	and	a1,a0,a1
   10900:	3f000637          	lui	a2,0x3f000
   10904:	00c5e433          	or	s0,a1,a2
   10908:	649050ef          	jal	ra,16750 <__floatunsisf>
   1090c:	340005b7          	lui	a1,0x34000
   10910:	474050ef          	jal	ra,15d84 <__mulsf3>
   10914:	c2f875b7          	lui	a1,0xc2f87
   10918:	37758593          	addi	a1,a1,887 # c2f87377 <__BSS_END__+0xc2f45213>
   1091c:	319040ef          	jal	ra,15434 <__addsf3>
   10920:	00050493          	mv	s1,a0
   10924:	bfbfc537          	lui	a0,0xbfbfc
   10928:	f7550593          	addi	a1,a0,-139 # bfbfbf75 <__BSS_END__+0xbfbb9e11>
   1092c:	00040513          	mv	a0,s0
   10930:	454050ef          	jal	ra,15d84 <__mulsf3>
   10934:	00050593          	mv	a1,a0
   10938:	00048513          	mv	a0,s1
   1093c:	2f9040ef          	jal	ra,15434 <__addsf3>
   10940:	00050493          	mv	s1,a0
   10944:	3eb44537          	lui	a0,0x3eb44
   10948:	4f950593          	addi	a1,a0,1273 # 3eb444f9 <__BSS_END__+0x3eb02395>
   1094c:	00040513          	mv	a0,s0
   10950:	2e5040ef          	jal	ra,15434 <__addsf3>
   10954:	00050593          	mv	a1,a0
   10958:	bfdcf537          	lui	a0,0xbfdcf
   1095c:	9a350513          	addi	a0,a0,-1629 # bfdce9a3 <__BSS_END__+0xbfd8c83f>
   10960:	729040ef          	jal	ra,15888 <__divsf3>
   10964:	00050593          	mv	a1,a0
   10968:	00048513          	mv	a0,s1
   1096c:	2c9040ef          	jal	ra,15434 <__addsf3>
   10970:	00412483          	lw	s1,4(sp)
   10974:	00812403          	lw	s0,8(sp)
   10978:	00c12083          	lw	ra,12(sp)
   1097c:	01010113          	addi	sp,sp,16
   10980:	00008067          	ret

00010984 <fastlog>:
   10984:	ff010113          	addi	sp,sp,-16
   10988:	00112623          	sw	ra,12(sp)
   1098c:	00812423          	sw	s0,8(sp)
   10990:	00912223          	sw	s1,4(sp)
   10994:	008005b7          	lui	a1,0x800
   10998:	fff58593          	addi	a1,a1,-1 # 7fffff <__BSS_END__+0x7bde9b>
   1099c:	00b575b3          	and	a1,a0,a1
   109a0:	3f000637          	lui	a2,0x3f000
   109a4:	00c5e433          	or	s0,a1,a2
   109a8:	5a9050ef          	jal	ra,16750 <__floatunsisf>
   109ac:	340005b7          	lui	a1,0x34000
   109b0:	3d4050ef          	jal	ra,15d84 <__mulsf3>
   109b4:	c2f875b7          	lui	a1,0xc2f87
   109b8:	37758593          	addi	a1,a1,887 # c2f87377 <__BSS_END__+0xc2f45213>
   109bc:	279040ef          	jal	ra,15434 <__addsf3>
   109c0:	00050493          	mv	s1,a0
   109c4:	bfbfc537          	lui	a0,0xbfbfc
   109c8:	f7550593          	addi	a1,a0,-139 # bfbfbf75 <__BSS_END__+0xbfbb9e11>
   109cc:	00040513          	mv	a0,s0
   109d0:	3b4050ef          	jal	ra,15d84 <__mulsf3>
   109d4:	00050593          	mv	a1,a0
   109d8:	00048513          	mv	a0,s1
   109dc:	259040ef          	jal	ra,15434 <__addsf3>
   109e0:	00050493          	mv	s1,a0
   109e4:	3eb44537          	lui	a0,0x3eb44
   109e8:	4f950593          	addi	a1,a0,1273 # 3eb444f9 <__BSS_END__+0x3eb02395>
   109ec:	00040513          	mv	a0,s0
   109f0:	245040ef          	jal	ra,15434 <__addsf3>
   109f4:	00050593          	mv	a1,a0
   109f8:	bfdcf537          	lui	a0,0xbfdcf
   109fc:	9a350513          	addi	a0,a0,-1629 # bfdce9a3 <__BSS_END__+0xbfd8c83f>
   10a00:	689040ef          	jal	ra,15888 <__divsf3>
   10a04:	00050593          	mv	a1,a0
   10a08:	00048513          	mv	a0,s1
   10a0c:	229040ef          	jal	ra,15434 <__addsf3>
   10a10:	3f3175b7          	lui	a1,0x3f317
   10a14:	21858593          	addi	a1,a1,536 # 3f317218 <__BSS_END__+0x3f2d50b4>
   10a18:	36c050ef          	jal	ra,15d84 <__mulsf3>
   10a1c:	00412483          	lw	s1,4(sp)
   10a20:	00812403          	lw	s0,8(sp)
   10a24:	00c12083          	lw	ra,12(sp)
   10a28:	01010113          	addi	sp,sp,16
   10a2c:	00008067          	ret

00010a30 <fasterlog2>:
   10a30:	ff010113          	addi	sp,sp,-16
   10a34:	00112623          	sw	ra,12(sp)
   10a38:	519050ef          	jal	ra,16750 <__floatunsisf>
   10a3c:	340005b7          	lui	a1,0x34000
   10a40:	344050ef          	jal	ra,15d84 <__mulsf3>
   10a44:	c2fde5b7          	lui	a1,0xc2fde
   10a48:	2a958593          	addi	a1,a1,681 # c2fde2a9 <__BSS_END__+0xc2f9c145>
   10a4c:	1e9040ef          	jal	ra,15434 <__addsf3>
   10a50:	00c12083          	lw	ra,12(sp)
   10a54:	01010113          	addi	sp,sp,16
   10a58:	00008067          	ret

00010a5c <fasterlog>:
   10a5c:	ff010113          	addi	sp,sp,-16
   10a60:	00112623          	sw	ra,12(sp)
   10a64:	4ed050ef          	jal	ra,16750 <__floatunsisf>
   10a68:	33b175b7          	lui	a1,0x33b17
   10a6c:	21858593          	addi	a1,a1,536 # 33b17218 <__BSS_END__+0x33ad50b4>
   10a70:	314050ef          	jal	ra,15d84 <__mulsf3>
   10a74:	c2b005b7          	lui	a1,0xc2b00
   10a78:	add58593          	addi	a1,a1,-1315 # c2affadd <__BSS_END__+0xc2abd979>
   10a7c:	1b9040ef          	jal	ra,15434 <__addsf3>
   10a80:	00c12083          	lw	ra,12(sp)
   10a84:	01010113          	addi	sp,sp,16
   10a88:	00008067          	ret

00010a8c <fasterfc>:
   10a8c:	fe010113          	addi	sp,sp,-32
   10a90:	00112e23          	sw	ra,28(sp)
   10a94:	00812c23          	sw	s0,24(sp)
   10a98:	00912a23          	sw	s1,20(sp)
   10a9c:	01212823          	sw	s2,16(sp)
   10aa0:	01312623          	sw	s3,12(sp)
   10aa4:	01412423          	sw	s4,8(sp)
   10aa8:	01512223          	sw	s5,4(sp)
   10aac:	01612023          	sw	s6,0(sp)
   10ab0:	00050a93          	mv	s5,a0
   10ab4:	40b38537          	lui	a0,0x40b38
   10ab8:	3dc50593          	addi	a1,a0,988 # 40b383dc <__BSS_END__+0x40af6278>
   10abc:	000a8513          	mv	a0,s5
   10ac0:	2c4050ef          	jal	ra,15d84 <__mulsf3>
   10ac4:	00050413          	mv	s0,a0
   10ac8:	000a8513          	mv	a0,s5
   10acc:	000a8593          	mv	a1,s5
   10ad0:	2b4050ef          	jal	ra,15d84 <__mulsf3>
   10ad4:	00050593          	mv	a1,a0
   10ad8:	2ac050ef          	jal	ra,15d84 <__mulsf3>
   10adc:	00050993          	mv	s3,a0
   10ae0:	80000537          	lui	a0,0x80000
   10ae4:	00a46933          	or	s2,s0,a0
   10ae8:	40567537          	lui	a0,0x40567
   10aec:	62f50593          	addi	a1,a0,1583 # 4056762f <__BSS_END__+0x405254cb>
   10af0:	000a8513          	mv	a0,s5
   10af4:	290050ef          	jal	ra,15d84 <__mulsf3>
   10af8:	00050413          	mv	s0,a0
   10afc:	00000593          	li	a1,0
   10b00:	1cc050ef          	jal	ra,15ccc <__lesf2>
   10b04:	41f55513          	srai	a0,a0,0x1f
   10b08:	3f8005b7          	lui	a1,0x3f800
   10b0c:	00b57b33          	and	s6,a0,a1
   10b10:	c2fc05b7          	lui	a1,0xc2fc0
   10b14:	c2fc0a37          	lui	s4,0xc2fc0
   10b18:	00040513          	mv	a0,s0
   10b1c:	1b0050ef          	jal	ra,15ccc <__lesf2>
   10b20:	c2fc04b7          	lui	s1,0xc2fc0
   10b24:	00054463          	bltz	a0,10b2c <fasterfc+0xa0>
   10b28:	00040493          	mv	s1,s0
   10b2c:	00048513          	mv	a0,s1
   10b30:	239050ef          	jal	ra,16568 <__fixsfsi>
   10b34:	309050ef          	jal	ra,1663c <__floatsisf>
   10b38:	00050593          	mv	a1,a0
   10b3c:	00048513          	mv	a0,s1
   10b40:	5bc050ef          	jal	ra,160fc <__subsf3>
   10b44:	00050593          	mv	a1,a0
   10b48:	000b0513          	mv	a0,s6
   10b4c:	0e9040ef          	jal	ra,15434 <__addsf3>
   10b50:	00050413          	mv	s0,a0
   10b54:	42f29537          	lui	a0,0x42f29
   10b58:	c5150593          	addi	a1,a0,-943 # 42f28c51 <__BSS_END__+0x42ee6aed>
   10b5c:	00048513          	mv	a0,s1
   10b60:	0d5040ef          	jal	ra,15434 <__addsf3>
   10b64:	00050493          	mv	s1,a0
   10b68:	409af537          	lui	a0,0x409af
   10b6c:	5f850513          	addi	a0,a0,1528 # 409af5f8 <__BSS_END__+0x4096d494>
   10b70:	00040593          	mv	a1,s0
   10b74:	588050ef          	jal	ra,160fc <__subsf3>
   10b78:	00050593          	mv	a1,a0
   10b7c:	41ddd537          	lui	a0,0x41ddd
   10b80:	2fe50513          	addi	a0,a0,766 # 41ddd2fe <__BSS_END__+0x41d9b19a>
   10b84:	505040ef          	jal	ra,15888 <__divsf3>
   10b88:	00050593          	mv	a1,a0
   10b8c:	00048513          	mv	a0,s1
   10b90:	0a5040ef          	jal	ra,15434 <__addsf3>
   10b94:	00050493          	mv	s1,a0
   10b98:	bfbec537          	lui	a0,0xbfbec
   10b9c:	c8d50593          	addi	a1,a0,-883 # bfbebc8d <__BSS_END__+0xbfba9b29>
   10ba0:	00040513          	mv	a0,s0
   10ba4:	1e0050ef          	jal	ra,15d84 <__mulsf3>
   10ba8:	00050593          	mv	a1,a0
   10bac:	00048513          	mv	a0,s1
   10bb0:	085040ef          	jal	ra,15434 <__addsf3>
   10bb4:	4b0005b7          	lui	a1,0x4b000
   10bb8:	1cc050ef          	jal	ra,15d84 <__mulsf3>
   10bbc:	21d050ef          	jal	ra,165d8 <__fixunssfsi>
   10bc0:	3f8005b7          	lui	a1,0x3f800
   10bc4:	071040ef          	jal	ra,15434 <__addsf3>
   10bc8:	00050593          	mv	a1,a0
   10bcc:	40000537          	lui	a0,0x40000
   10bd0:	4b9040ef          	jal	ra,15888 <__divsf3>
   10bd4:	00050413          	mv	s0,a0
   10bd8:	bd93e537          	lui	a0,0xbd93e
   10bdc:	8a350593          	addi	a1,a0,-1885 # bd93d8a3 <__BSS_END__+0xbd8fb73f>
   10be0:	000a8513          	mv	a0,s5
   10be4:	1a0050ef          	jal	ra,15d84 <__mulsf3>
   10be8:	00050493          	mv	s1,a0
   10bec:	4176b537          	lui	a0,0x4176b
   10bf0:	0ea50593          	addi	a1,a0,234 # 4176b0ea <__BSS_END__+0x41728f86>
   10bf4:	00098513          	mv	a0,s3
   10bf8:	18c050ef          	jal	ra,15d84 <__mulsf3>
   10bfc:	bf8005b7          	lui	a1,0xbf800
   10c00:	035040ef          	jal	ra,15434 <__addsf3>
   10c04:	00050593          	mv	a1,a0
   10c08:	00048513          	mv	a0,s1
   10c0c:	178050ef          	jal	ra,15d84 <__mulsf3>
   10c10:	00050493          	mv	s1,a0
   10c14:	c2fc05b7          	lui	a1,0xc2fc0
   10c18:	00090513          	mv	a0,s2
   10c1c:	0b0050ef          	jal	ra,15ccc <__lesf2>
   10c20:	00054463          	bltz	a0,10c28 <fasterfc+0x19c>
   10c24:	00090a13          	mv	s4,s2
   10c28:	42fde537          	lui	a0,0x42fde
   10c2c:	2a950593          	addi	a1,a0,681 # 42fde2a9 <__BSS_END__+0x42f9c145>
   10c30:	000a0513          	mv	a0,s4
   10c34:	001040ef          	jal	ra,15434 <__addsf3>
   10c38:	4b0005b7          	lui	a1,0x4b000
   10c3c:	148050ef          	jal	ra,15d84 <__mulsf3>
   10c40:	199050ef          	jal	ra,165d8 <__fixunssfsi>
   10c44:	00050593          	mv	a1,a0
   10c48:	00048513          	mv	a0,s1
   10c4c:	138050ef          	jal	ra,15d84 <__mulsf3>
   10c50:	00050593          	mv	a1,a0
   10c54:	00040513          	mv	a0,s0
   10c58:	7dc040ef          	jal	ra,15434 <__addsf3>
   10c5c:	00012b03          	lw	s6,0(sp)
   10c60:	00412a83          	lw	s5,4(sp)
   10c64:	00812a03          	lw	s4,8(sp)
   10c68:	00c12983          	lw	s3,12(sp)
   10c6c:	01012903          	lw	s2,16(sp)
   10c70:	01412483          	lw	s1,20(sp)
   10c74:	01812403          	lw	s0,24(sp)
   10c78:	01c12083          	lw	ra,28(sp)
   10c7c:	02010113          	addi	sp,sp,32
   10c80:	00008067          	ret

00010c84 <fastererfc>:
   10c84:	ff010113          	addi	sp,sp,-16
   10c88:	00112623          	sw	ra,12(sp)
   10c8c:	00812423          	sw	s0,8(sp)
   10c90:	00912223          	sw	s1,4(sp)
   10c94:	405675b7          	lui	a1,0x40567
   10c98:	62f58593          	addi	a1,a1,1583 # 4056762f <__BSS_END__+0x405254cb>
   10c9c:	0e8050ef          	jal	ra,15d84 <__mulsf3>
   10ca0:	00050493          	mv	s1,a0
   10ca4:	c2fc05b7          	lui	a1,0xc2fc0
   10ca8:	c2fc0437          	lui	s0,0xc2fc0
   10cac:	020050ef          	jal	ra,15ccc <__lesf2>
   10cb0:	00054463          	bltz	a0,10cb8 <fastererfc+0x34>
   10cb4:	00048413          	mv	s0,s1
   10cb8:	42fde537          	lui	a0,0x42fde
   10cbc:	2a950593          	addi	a1,a0,681 # 42fde2a9 <__BSS_END__+0x42f9c145>
   10cc0:	00040513          	mv	a0,s0
   10cc4:	770040ef          	jal	ra,15434 <__addsf3>
   10cc8:	4b0005b7          	lui	a1,0x4b000
   10ccc:	0b8050ef          	jal	ra,15d84 <__mulsf3>
   10cd0:	109050ef          	jal	ra,165d8 <__fixunssfsi>
   10cd4:	3f8005b7          	lui	a1,0x3f800
   10cd8:	75c040ef          	jal	ra,15434 <__addsf3>
   10cdc:	00050593          	mv	a1,a0
   10ce0:	40000537          	lui	a0,0x40000
   10ce4:	3a5040ef          	jal	ra,15888 <__divsf3>
   10ce8:	00412483          	lw	s1,4(sp)
   10cec:	00812403          	lw	s0,8(sp)
   10cf0:	00c12083          	lw	ra,12(sp)
   10cf4:	01010113          	addi	sp,sp,16
   10cf8:	00008067          	ret

00010cfc <fasterf>:
   10cfc:	fe010113          	addi	sp,sp,-32
   10d00:	00112e23          	sw	ra,28(sp)
   10d04:	00812c23          	sw	s0,24(sp)
   10d08:	00912a23          	sw	s1,20(sp)
   10d0c:	01212823          	sw	s2,16(sp)
   10d10:	01312623          	sw	s3,12(sp)
   10d14:	01412423          	sw	s4,8(sp)
   10d18:	01512223          	sw	s5,4(sp)
   10d1c:	01612023          	sw	s6,0(sp)
   10d20:	00050a93          	mv	s5,a0
   10d24:	40b38537          	lui	a0,0x40b38
   10d28:	3dc50593          	addi	a1,a0,988 # 40b383dc <__BSS_END__+0x40af6278>
   10d2c:	000a8513          	mv	a0,s5
   10d30:	054050ef          	jal	ra,15d84 <__mulsf3>
   10d34:	00050413          	mv	s0,a0
   10d38:	000a8513          	mv	a0,s5
   10d3c:	000a8593          	mv	a1,s5
   10d40:	044050ef          	jal	ra,15d84 <__mulsf3>
   10d44:	00050593          	mv	a1,a0
   10d48:	03c050ef          	jal	ra,15d84 <__mulsf3>
   10d4c:	00050993          	mv	s3,a0
   10d50:	80000537          	lui	a0,0x80000
   10d54:	00a46933          	or	s2,s0,a0
   10d58:	40567537          	lui	a0,0x40567
   10d5c:	62f50593          	addi	a1,a0,1583 # 4056762f <__BSS_END__+0x405254cb>
   10d60:	000a8513          	mv	a0,s5
   10d64:	020050ef          	jal	ra,15d84 <__mulsf3>
   10d68:	00050413          	mv	s0,a0
   10d6c:	00000593          	li	a1,0
   10d70:	75d040ef          	jal	ra,15ccc <__lesf2>
   10d74:	41f55513          	srai	a0,a0,0x1f
   10d78:	3f8005b7          	lui	a1,0x3f800
   10d7c:	00b57b33          	and	s6,a0,a1
   10d80:	c2fc05b7          	lui	a1,0xc2fc0
   10d84:	c2fc0a37          	lui	s4,0xc2fc0
   10d88:	00040513          	mv	a0,s0
   10d8c:	741040ef          	jal	ra,15ccc <__lesf2>
   10d90:	c2fc04b7          	lui	s1,0xc2fc0
   10d94:	00054463          	bltz	a0,10d9c <fasterf+0xa0>
   10d98:	00040493          	mv	s1,s0
   10d9c:	00048513          	mv	a0,s1
   10da0:	7c8050ef          	jal	ra,16568 <__fixsfsi>
   10da4:	099050ef          	jal	ra,1663c <__floatsisf>
   10da8:	00050593          	mv	a1,a0
   10dac:	00048513          	mv	a0,s1
   10db0:	34c050ef          	jal	ra,160fc <__subsf3>
   10db4:	00050593          	mv	a1,a0
   10db8:	000b0513          	mv	a0,s6
   10dbc:	678040ef          	jal	ra,15434 <__addsf3>
   10dc0:	00050413          	mv	s0,a0
   10dc4:	42f29537          	lui	a0,0x42f29
   10dc8:	c5150593          	addi	a1,a0,-943 # 42f28c51 <__BSS_END__+0x42ee6aed>
   10dcc:	00048513          	mv	a0,s1
   10dd0:	664040ef          	jal	ra,15434 <__addsf3>
   10dd4:	00050493          	mv	s1,a0
   10dd8:	409af537          	lui	a0,0x409af
   10ddc:	5f850513          	addi	a0,a0,1528 # 409af5f8 <__BSS_END__+0x4096d494>
   10de0:	00040593          	mv	a1,s0
   10de4:	318050ef          	jal	ra,160fc <__subsf3>
   10de8:	00050593          	mv	a1,a0
   10dec:	41ddd537          	lui	a0,0x41ddd
   10df0:	2fe50513          	addi	a0,a0,766 # 41ddd2fe <__BSS_END__+0x41d9b19a>
   10df4:	295040ef          	jal	ra,15888 <__divsf3>
   10df8:	00050593          	mv	a1,a0
   10dfc:	00048513          	mv	a0,s1
   10e00:	634040ef          	jal	ra,15434 <__addsf3>
   10e04:	00050493          	mv	s1,a0
   10e08:	bfbec537          	lui	a0,0xbfbec
   10e0c:	c8d50593          	addi	a1,a0,-883 # bfbebc8d <__BSS_END__+0xbfba9b29>
   10e10:	00040513          	mv	a0,s0
   10e14:	771040ef          	jal	ra,15d84 <__mulsf3>
   10e18:	00050593          	mv	a1,a0
   10e1c:	00048513          	mv	a0,s1
   10e20:	614040ef          	jal	ra,15434 <__addsf3>
   10e24:	4b0005b7          	lui	a1,0x4b000
   10e28:	75d040ef          	jal	ra,15d84 <__mulsf3>
   10e2c:	7ac050ef          	jal	ra,165d8 <__fixunssfsi>
   10e30:	3f8005b7          	lui	a1,0x3f800
   10e34:	600040ef          	jal	ra,15434 <__addsf3>
   10e38:	00050593          	mv	a1,a0
   10e3c:	40000537          	lui	a0,0x40000
   10e40:	249040ef          	jal	ra,15888 <__divsf3>
   10e44:	00050413          	mv	s0,a0
   10e48:	bd93e537          	lui	a0,0xbd93e
   10e4c:	8a350593          	addi	a1,a0,-1885 # bd93d8a3 <__BSS_END__+0xbd8fb73f>
   10e50:	000a8513          	mv	a0,s5
   10e54:	731040ef          	jal	ra,15d84 <__mulsf3>
   10e58:	00050493          	mv	s1,a0
   10e5c:	4176b537          	lui	a0,0x4176b
   10e60:	0ea50593          	addi	a1,a0,234 # 4176b0ea <__BSS_END__+0x41728f86>
   10e64:	00098513          	mv	a0,s3
   10e68:	71d040ef          	jal	ra,15d84 <__mulsf3>
   10e6c:	bf8005b7          	lui	a1,0xbf800
   10e70:	5c4040ef          	jal	ra,15434 <__addsf3>
   10e74:	00050593          	mv	a1,a0
   10e78:	00048513          	mv	a0,s1
   10e7c:	709040ef          	jal	ra,15d84 <__mulsf3>
   10e80:	00050493          	mv	s1,a0
   10e84:	c2fc05b7          	lui	a1,0xc2fc0
   10e88:	00090513          	mv	a0,s2
   10e8c:	641040ef          	jal	ra,15ccc <__lesf2>
   10e90:	00054463          	bltz	a0,10e98 <fasterf+0x19c>
   10e94:	00090a13          	mv	s4,s2
   10e98:	42fde537          	lui	a0,0x42fde
   10e9c:	2a950593          	addi	a1,a0,681 # 42fde2a9 <__BSS_END__+0x42f9c145>
   10ea0:	000a0513          	mv	a0,s4
   10ea4:	590040ef          	jal	ra,15434 <__addsf3>
   10ea8:	4b0005b7          	lui	a1,0x4b000
   10eac:	6d9040ef          	jal	ra,15d84 <__mulsf3>
   10eb0:	728050ef          	jal	ra,165d8 <__fixunssfsi>
   10eb4:	00050593          	mv	a1,a0
   10eb8:	00048513          	mv	a0,s1
   10ebc:	6c9040ef          	jal	ra,15d84 <__mulsf3>
   10ec0:	00050593          	mv	a1,a0
   10ec4:	00040513          	mv	a0,s0
   10ec8:	56c040ef          	jal	ra,15434 <__addsf3>
   10ecc:	00050593          	mv	a1,a0
   10ed0:	3f800537          	lui	a0,0x3f800
   10ed4:	228050ef          	jal	ra,160fc <__subsf3>
   10ed8:	00012b03          	lw	s6,0(sp)
   10edc:	00412a83          	lw	s5,4(sp)
   10ee0:	00812a03          	lw	s4,8(sp)
   10ee4:	00c12983          	lw	s3,12(sp)
   10ee8:	01012903          	lw	s2,16(sp)
   10eec:	01412483          	lw	s1,20(sp)
   10ef0:	01812403          	lw	s0,24(sp)
   10ef4:	01c12083          	lw	ra,28(sp)
   10ef8:	02010113          	addi	sp,sp,32
   10efc:	00008067          	ret

00010f00 <fastererf>:
   10f00:	ff010113          	addi	sp,sp,-16
   10f04:	00112623          	sw	ra,12(sp)
   10f08:	00812423          	sw	s0,8(sp)
   10f0c:	00912223          	sw	s1,4(sp)
   10f10:	405675b7          	lui	a1,0x40567
   10f14:	62f58593          	addi	a1,a1,1583 # 4056762f <__BSS_END__+0x405254cb>
   10f18:	66d040ef          	jal	ra,15d84 <__mulsf3>
   10f1c:	00050493          	mv	s1,a0
   10f20:	c2fc05b7          	lui	a1,0xc2fc0
   10f24:	c2fc0437          	lui	s0,0xc2fc0
   10f28:	5a5040ef          	jal	ra,15ccc <__lesf2>
   10f2c:	00054463          	bltz	a0,10f34 <fastererf+0x34>
   10f30:	00048413          	mv	s0,s1
   10f34:	42fde537          	lui	a0,0x42fde
   10f38:	2a950593          	addi	a1,a0,681 # 42fde2a9 <__BSS_END__+0x42f9c145>
   10f3c:	00040513          	mv	a0,s0
   10f40:	4f4040ef          	jal	ra,15434 <__addsf3>
   10f44:	4b0005b7          	lui	a1,0x4b000
   10f48:	63d040ef          	jal	ra,15d84 <__mulsf3>
   10f4c:	68c050ef          	jal	ra,165d8 <__fixunssfsi>
   10f50:	3f8005b7          	lui	a1,0x3f800
   10f54:	4e0040ef          	jal	ra,15434 <__addsf3>
   10f58:	00050593          	mv	a1,a0
   10f5c:	c0000537          	lui	a0,0xc0000
   10f60:	129040ef          	jal	ra,15888 <__divsf3>
   10f64:	3f8005b7          	lui	a1,0x3f800
   10f68:	4cc040ef          	jal	ra,15434 <__addsf3>
   10f6c:	00412483          	lw	s1,4(sp)
   10f70:	00812403          	lw	s0,8(sp)
   10f74:	00c12083          	lw	ra,12(sp)
   10f78:	01010113          	addi	sp,sp,16
   10f7c:	00008067          	ret

00010f80 <fastinverseerf>:
   10f80:	fe010113          	addi	sp,sp,-32
   10f84:	00112e23          	sw	ra,28(sp)
   10f88:	00812c23          	sw	s0,24(sp)
   10f8c:	00912a23          	sw	s1,20(sp)
   10f90:	01212823          	sw	s2,16(sp)
   10f94:	01312623          	sw	s3,12(sp)
   10f98:	00050993          	mv	s3,a0
   10f9c:	00050593          	mv	a1,a0
   10fa0:	5e5040ef          	jal	ra,15d84 <__mulsf3>
   10fa4:	00050913          	mv	s2,a0
   10fa8:	3f8005b7          	lui	a1,0x3f800
   10fac:	00098513          	mv	a0,s3
   10fb0:	484040ef          	jal	ra,15434 <__addsf3>
   10fb4:	00050413          	mv	s0,a0
   10fb8:	3f800537          	lui	a0,0x3f800
   10fbc:	00098593          	mv	a1,s3
   10fc0:	13c050ef          	jal	ra,160fc <__subsf3>
   10fc4:	00050593          	mv	a1,a0
   10fc8:	00040513          	mv	a0,s0
   10fcc:	0bd040ef          	jal	ra,15888 <__divsf3>
   10fd0:	008005b7          	lui	a1,0x800
   10fd4:	fff58593          	addi	a1,a1,-1 # 7fffff <__BSS_END__+0x7bde9b>
   10fd8:	00b575b3          	and	a1,a0,a1
   10fdc:	3f000637          	lui	a2,0x3f000
   10fe0:	00c5e433          	or	s0,a1,a2
   10fe4:	76c050ef          	jal	ra,16750 <__floatunsisf>
   10fe8:	340005b7          	lui	a1,0x34000
   10fec:	599040ef          	jal	ra,15d84 <__mulsf3>
   10ff0:	c2f875b7          	lui	a1,0xc2f87
   10ff4:	37758593          	addi	a1,a1,887 # c2f87377 <__BSS_END__+0xc2f45213>
   10ff8:	43c040ef          	jal	ra,15434 <__addsf3>
   10ffc:	00050493          	mv	s1,a0
   11000:	bfbfc537          	lui	a0,0xbfbfc
   11004:	f7550593          	addi	a1,a0,-139 # bfbfbf75 <__BSS_END__+0xbfbb9e11>
   11008:	00040513          	mv	a0,s0
   1100c:	579040ef          	jal	ra,15d84 <__mulsf3>
   11010:	00050593          	mv	a1,a0
   11014:	00048513          	mv	a0,s1
   11018:	41c040ef          	jal	ra,15434 <__addsf3>
   1101c:	00050493          	mv	s1,a0
   11020:	3eb44537          	lui	a0,0x3eb44
   11024:	4f950593          	addi	a1,a0,1273 # 3eb444f9 <__BSS_END__+0x3eb02395>
   11028:	00040513          	mv	a0,s0
   1102c:	408040ef          	jal	ra,15434 <__addsf3>
   11030:	00050593          	mv	a1,a0
   11034:	bfdcf537          	lui	a0,0xbfdcf
   11038:	9a350513          	addi	a0,a0,-1629 # bfdce9a3 <__BSS_END__+0xbfd8c83f>
   1103c:	04d040ef          	jal	ra,15888 <__divsf3>
   11040:	00050593          	mv	a1,a0
   11044:	00048513          	mv	a0,s1
   11048:	3ec040ef          	jal	ra,15434 <__addsf3>
   1104c:	3e99a5b7          	lui	a1,0x3e99a
   11050:	f9a58593          	addi	a1,a1,-102 # 3e999f9a <__BSS_END__+0x3e957e36>
   11054:	531040ef          	jal	ra,15d84 <__mulsf3>
   11058:	00050413          	mv	s0,a0
   1105c:	bd943537          	lui	a0,0xbd943
   11060:	62950593          	addi	a1,a0,1577 # bd943629 <__BSS_END__+0xbd9014c5>
   11064:	00090513          	mv	a0,s2
   11068:	51d040ef          	jal	ra,15d84 <__mulsf3>
   1106c:	3ca635b7          	lui	a1,0x3ca63
   11070:	2b658593          	addi	a1,a1,694 # 3ca632b6 <__BSS_END__+0x3ca21152>
   11074:	3c0040ef          	jal	ra,15434 <__addsf3>
   11078:	00098593          	mv	a1,s3
   1107c:	509040ef          	jal	ra,15d84 <__mulsf3>
   11080:	00050493          	mv	s1,a0
   11084:	bf4e5537          	lui	a0,0xbf4e5
   11088:	48c50593          	addi	a1,a0,1164 # bf4e548c <__BSS_END__+0xbf4a3328>
   1108c:	00090513          	mv	a0,s2
   11090:	4f5040ef          	jal	ra,15d84 <__mulsf3>
   11094:	3f7dc5b7          	lui	a1,0x3f7dc
   11098:	60958593          	addi	a1,a1,1545 # 3f7dc609 <__BSS_END__+0x3f79a4a5>
   1109c:	398040ef          	jal	ra,15434 <__addsf3>
   110a0:	00050593          	mv	a1,a0
   110a4:	00048513          	mv	a0,s1
   110a8:	7e0040ef          	jal	ra,15888 <__divsf3>
   110ac:	00040593          	mv	a1,s0
   110b0:	384040ef          	jal	ra,15434 <__addsf3>
   110b4:	00c12983          	lw	s3,12(sp)
   110b8:	01012903          	lw	s2,16(sp)
   110bc:	01412483          	lw	s1,20(sp)
   110c0:	01812403          	lw	s0,24(sp)
   110c4:	01c12083          	lw	ra,28(sp)
   110c8:	02010113          	addi	sp,sp,32
   110cc:	00008067          	ret

000110d0 <fasterinverseerf>:
   110d0:	ff010113          	addi	sp,sp,-16
   110d4:	00112623          	sw	ra,12(sp)
   110d8:	00812423          	sw	s0,8(sp)
   110dc:	00912223          	sw	s1,4(sp)
   110e0:	00050413          	mv	s0,a0
   110e4:	3f8005b7          	lui	a1,0x3f800
   110e8:	34c040ef          	jal	ra,15434 <__addsf3>
   110ec:	00050493          	mv	s1,a0
   110f0:	3f800537          	lui	a0,0x3f800
   110f4:	00040593          	mv	a1,s0
   110f8:	004050ef          	jal	ra,160fc <__subsf3>
   110fc:	00050593          	mv	a1,a0
   11100:	00048513          	mv	a0,s1
   11104:	784040ef          	jal	ra,15888 <__divsf3>
   11108:	648050ef          	jal	ra,16750 <__floatunsisf>
   1110c:	340005b7          	lui	a1,0x34000
   11110:	475040ef          	jal	ra,15d84 <__mulsf3>
   11114:	c2fde5b7          	lui	a1,0xc2fde
   11118:	2a958593          	addi	a1,a1,681 # c2fde2a9 <__BSS_END__+0xc2f9c145>
   1111c:	318040ef          	jal	ra,15434 <__addsf3>
   11120:	3e99a5b7          	lui	a1,0x3e99a
   11124:	f9a58593          	addi	a1,a1,-102 # 3e999f9a <__BSS_END__+0x3e957e36>
   11128:	45d040ef          	jal	ra,15d84 <__mulsf3>
   1112c:	00412483          	lw	s1,4(sp)
   11130:	00812403          	lw	s0,8(sp)
   11134:	00c12083          	lw	ra,12(sp)
   11138:	01010113          	addi	sp,sp,16
   1113c:	00008067          	ret

00011140 <fastlgamma>:
   11140:	fd010113          	addi	sp,sp,-48
   11144:	02112623          	sw	ra,44(sp)
   11148:	02812423          	sw	s0,40(sp)
   1114c:	02912223          	sw	s1,36(sp)
   11150:	03212023          	sw	s2,32(sp)
   11154:	01312e23          	sw	s3,28(sp)
   11158:	01412c23          	sw	s4,24(sp)
   1115c:	01512a23          	sw	s5,20(sp)
   11160:	01612823          	sw	s6,16(sp)
   11164:	01712623          	sw	s7,12(sp)
   11168:	01812423          	sw	s8,8(sp)
   1116c:	01912223          	sw	s9,4(sp)
   11170:	01a12023          	sw	s10,0(sp)
   11174:	00050b93          	mv	s7,a0
   11178:	3f8005b7          	lui	a1,0x3f800
   1117c:	2b8040ef          	jal	ra,15434 <__addsf3>
   11180:	000b8593          	mv	a1,s7
   11184:	401040ef          	jal	ra,15d84 <__mulsf3>
   11188:	00050493          	mv	s1,a0
   1118c:	400005b7          	lui	a1,0x40000
   11190:	000b8513          	mv	a0,s7
   11194:	2a0040ef          	jal	ra,15434 <__addsf3>
   11198:	00048593          	mv	a1,s1
   1119c:	3e9040ef          	jal	ra,15d84 <__mulsf3>
   111a0:	008005b7          	lui	a1,0x800
   111a4:	fff58c93          	addi	s9,a1,-1 # 7fffff <__BSS_END__+0x7bde9b>
   111a8:	019575b3          	and	a1,a0,s9
   111ac:	3f000d37          	lui	s10,0x3f000
   111b0:	01a5e4b3          	or	s1,a1,s10
   111b4:	59c050ef          	jal	ra,16750 <__floatunsisf>
   111b8:	340005b7          	lui	a1,0x34000
   111bc:	3c9040ef          	jal	ra,15d84 <__mulsf3>
   111c0:	c2f875b7          	lui	a1,0xc2f87
   111c4:	37758913          	addi	s2,a1,887 # c2f87377 <__BSS_END__+0xc2f45213>
   111c8:	00090593          	mv	a1,s2
   111cc:	268040ef          	jal	ra,15434 <__addsf3>
   111d0:	00050413          	mv	s0,a0
   111d4:	3fbfc537          	lui	a0,0x3fbfc
   111d8:	f7550993          	addi	s3,a0,-139 # 3fbfbf75 <__BSS_END__+0x3fbb9e11>
   111dc:	00048513          	mv	a0,s1
   111e0:	00098593          	mv	a1,s3
   111e4:	3a1040ef          	jal	ra,15d84 <__mulsf3>
   111e8:	00050593          	mv	a1,a0
   111ec:	00040513          	mv	a0,s0
   111f0:	70d040ef          	jal	ra,160fc <__subsf3>
   111f4:	00050413          	mv	s0,a0
   111f8:	3eb44537          	lui	a0,0x3eb44
   111fc:	4f950a13          	addi	s4,a0,1273 # 3eb444f9 <__BSS_END__+0x3eb02395>
   11200:	00048513          	mv	a0,s1
   11204:	000a0593          	mv	a1,s4
   11208:	22c040ef          	jal	ra,15434 <__addsf3>
   1120c:	00050593          	mv	a1,a0
   11210:	3fdcf537          	lui	a0,0x3fdcf
   11214:	9a350a93          	addi	s5,a0,-1629 # 3fdce9a3 <__BSS_END__+0x3fd8c83f>
   11218:	000a8513          	mv	a0,s5
   1121c:	66c040ef          	jal	ra,15888 <__divsf3>
   11220:	00050593          	mv	a1,a0
   11224:	00040513          	mv	a0,s0
   11228:	6d5040ef          	jal	ra,160fc <__subsf3>
   1122c:	3f3175b7          	lui	a1,0x3f317
   11230:	21858c13          	addi	s8,a1,536 # 3f317218 <__BSS_END__+0x3f2d50b4>
   11234:	000c0593          	mv	a1,s8
   11238:	34d040ef          	jal	ra,15d84 <__mulsf3>
   1123c:	00050b13          	mv	s6,a0
   11240:	404005b7          	lui	a1,0x40400
   11244:	000b8513          	mv	a0,s7
   11248:	1ec040ef          	jal	ra,15434 <__addsf3>
   1124c:	00050493          	mv	s1,a0
   11250:	c0053537          	lui	a0,0xc0053
   11254:	01c50513          	addi	a0,a0,28 # c005301c <__BSS_END__+0xc0010eb8>
   11258:	000b8593          	mv	a1,s7
   1125c:	6a1040ef          	jal	ra,160fc <__subsf3>
   11260:	00050413          	mv	s0,a0
   11264:	3daab537          	lui	a0,0x3daab
   11268:	aa650513          	addi	a0,a0,-1370 # 3daaaaa6 <__BSS_END__+0x3da68942>
   1126c:	00048593          	mv	a1,s1
   11270:	618040ef          	jal	ra,15888 <__divsf3>
   11274:	00050593          	mv	a1,a0
   11278:	00040513          	mv	a0,s0
   1127c:	1b8040ef          	jal	ra,15434 <__addsf3>
   11280:	000b0593          	mv	a1,s6
   11284:	679040ef          	jal	ra,160fc <__subsf3>
   11288:	00050b13          	mv	s6,a0
   1128c:	402005b7          	lui	a1,0x40200
   11290:	000b8513          	mv	a0,s7
   11294:	1a0040ef          	jal	ra,15434 <__addsf3>
   11298:	00050b93          	mv	s7,a0
   1129c:	0194f533          	and	a0,s1,s9
   112a0:	01a56433          	or	s0,a0,s10
   112a4:	00048513          	mv	a0,s1
   112a8:	4a8050ef          	jal	ra,16750 <__floatunsisf>
   112ac:	340005b7          	lui	a1,0x34000
   112b0:	2d5040ef          	jal	ra,15d84 <__mulsf3>
   112b4:	00090593          	mv	a1,s2
   112b8:	17c040ef          	jal	ra,15434 <__addsf3>
   112bc:	00050493          	mv	s1,a0
   112c0:	00040513          	mv	a0,s0
   112c4:	00098593          	mv	a1,s3
   112c8:	2bd040ef          	jal	ra,15d84 <__mulsf3>
   112cc:	00050593          	mv	a1,a0
   112d0:	00048513          	mv	a0,s1
   112d4:	629040ef          	jal	ra,160fc <__subsf3>
   112d8:	00050493          	mv	s1,a0
   112dc:	00040513          	mv	a0,s0
   112e0:	000a0593          	mv	a1,s4
   112e4:	150040ef          	jal	ra,15434 <__addsf3>
   112e8:	00050593          	mv	a1,a0
   112ec:	000a8513          	mv	a0,s5
   112f0:	598040ef          	jal	ra,15888 <__divsf3>
   112f4:	00050593          	mv	a1,a0
   112f8:	00048513          	mv	a0,s1
   112fc:	601040ef          	jal	ra,160fc <__subsf3>
   11300:	000c0593          	mv	a1,s8
   11304:	281040ef          	jal	ra,15d84 <__mulsf3>
   11308:	00050593          	mv	a1,a0
   1130c:	000b8513          	mv	a0,s7
   11310:	275040ef          	jal	ra,15d84 <__mulsf3>
   11314:	00050593          	mv	a1,a0
   11318:	000b0513          	mv	a0,s6
   1131c:	118040ef          	jal	ra,15434 <__addsf3>
   11320:	00012d03          	lw	s10,0(sp)
   11324:	00412c83          	lw	s9,4(sp)
   11328:	00812c03          	lw	s8,8(sp)
   1132c:	00c12b83          	lw	s7,12(sp)
   11330:	01012b03          	lw	s6,16(sp)
   11334:	01412a83          	lw	s5,20(sp)
   11338:	01812a03          	lw	s4,24(sp)
   1133c:	01c12983          	lw	s3,28(sp)
   11340:	02012903          	lw	s2,32(sp)
   11344:	02412483          	lw	s1,36(sp)
   11348:	02812403          	lw	s0,40(sp)
   1134c:	02c12083          	lw	ra,44(sp)
   11350:	03010113          	addi	sp,sp,48
   11354:	00008067          	ret

00011358 <fasterlgamma>:
   11358:	fe010113          	addi	sp,sp,-32
   1135c:	00112e23          	sw	ra,28(sp)
   11360:	00812c23          	sw	s0,24(sp)
   11364:	00912a23          	sw	s1,20(sp)
   11368:	01212823          	sw	s2,16(sp)
   1136c:	01312623          	sw	s3,12(sp)
   11370:	01412423          	sw	s4,8(sp)
   11374:	00050413          	mv	s0,a0
   11378:	bda60537          	lui	a0,0xbda60
   1137c:	38e50513          	addi	a0,a0,910 # bda6038e <__BSS_END__+0xbda1e22a>
   11380:	00040593          	mv	a1,s0
   11384:	579040ef          	jal	ra,160fc <__subsf3>
   11388:	00050913          	mv	s2,a0
   1138c:	00040513          	mv	a0,s0
   11390:	3c0050ef          	jal	ra,16750 <__floatunsisf>
   11394:	33b175b7          	lui	a1,0x33b17
   11398:	21858993          	addi	s3,a1,536 # 33b17218 <__BSS_END__+0x33ad50b4>
   1139c:	00098593          	mv	a1,s3
   113a0:	1e5040ef          	jal	ra,15d84 <__mulsf3>
   113a4:	c2b005b7          	lui	a1,0xc2b00
   113a8:	add58493          	addi	s1,a1,-1315 # c2affadd <__BSS_END__+0xc2abd979>
   113ac:	00048593          	mv	a1,s1
   113b0:	084040ef          	jal	ra,15434 <__addsf3>
   113b4:	00050593          	mv	a1,a0
   113b8:	00090513          	mv	a0,s2
   113bc:	541040ef          	jal	ra,160fc <__subsf3>
   113c0:	00050913          	mv	s2,a0
   113c4:	3f0005b7          	lui	a1,0x3f000
   113c8:	00040513          	mv	a0,s0
   113cc:	068040ef          	jal	ra,15434 <__addsf3>
   113d0:	00050a13          	mv	s4,a0
   113d4:	3f8005b7          	lui	a1,0x3f800
   113d8:	00040513          	mv	a0,s0
   113dc:	058040ef          	jal	ra,15434 <__addsf3>
   113e0:	370050ef          	jal	ra,16750 <__floatunsisf>
   113e4:	00098593          	mv	a1,s3
   113e8:	19d040ef          	jal	ra,15d84 <__mulsf3>
   113ec:	00048593          	mv	a1,s1
   113f0:	044040ef          	jal	ra,15434 <__addsf3>
   113f4:	00050593          	mv	a1,a0
   113f8:	000a0513          	mv	a0,s4
   113fc:	189040ef          	jal	ra,15d84 <__mulsf3>
   11400:	00050593          	mv	a1,a0
   11404:	00090513          	mv	a0,s2
   11408:	02c040ef          	jal	ra,15434 <__addsf3>
   1140c:	00812a03          	lw	s4,8(sp)
   11410:	00c12983          	lw	s3,12(sp)
   11414:	01012903          	lw	s2,16(sp)
   11418:	01412483          	lw	s1,20(sp)
   1141c:	01812403          	lw	s0,24(sp)
   11420:	01c12083          	lw	ra,28(sp)
   11424:	02010113          	addi	sp,sp,32
   11428:	00008067          	ret

0001142c <fastdigamma>:
   1142c:	fe010113          	addi	sp,sp,-32
   11430:	00112e23          	sw	ra,28(sp)
   11434:	00812c23          	sw	s0,24(sp)
   11438:	00912a23          	sw	s1,20(sp)
   1143c:	01212823          	sw	s2,16(sp)
   11440:	01312623          	sw	s3,12(sp)
   11444:	01412423          	sw	s4,8(sp)
   11448:	00050a13          	mv	s4,a0
   1144c:	400005b7          	lui	a1,0x40000
   11450:	7e5030ef          	jal	ra,15434 <__addsf3>
   11454:	00050993          	mv	s3,a0
   11458:	00800537          	lui	a0,0x800
   1145c:	fff50513          	addi	a0,a0,-1 # 7fffff <__BSS_END__+0x7bde9b>
   11460:	00a9f533          	and	a0,s3,a0
   11464:	3f0005b7          	lui	a1,0x3f000
   11468:	00b56433          	or	s0,a0,a1
   1146c:	00098513          	mv	a0,s3
   11470:	2e0050ef          	jal	ra,16750 <__floatunsisf>
   11474:	340005b7          	lui	a1,0x34000
   11478:	10d040ef          	jal	ra,15d84 <__mulsf3>
   1147c:	c2f875b7          	lui	a1,0xc2f87
   11480:	37758593          	addi	a1,a1,887 # c2f87377 <__BSS_END__+0xc2f45213>
   11484:	7b1030ef          	jal	ra,15434 <__addsf3>
   11488:	00050493          	mv	s1,a0
   1148c:	bfbfc537          	lui	a0,0xbfbfc
   11490:	f7550593          	addi	a1,a0,-139 # bfbfbf75 <__BSS_END__+0xbfbb9e11>
   11494:	00040513          	mv	a0,s0
   11498:	0ed040ef          	jal	ra,15d84 <__mulsf3>
   1149c:	00050593          	mv	a1,a0
   114a0:	00048513          	mv	a0,s1
   114a4:	791030ef          	jal	ra,15434 <__addsf3>
   114a8:	00050493          	mv	s1,a0
   114ac:	3eb44537          	lui	a0,0x3eb44
   114b0:	4f950593          	addi	a1,a0,1273 # 3eb444f9 <__BSS_END__+0x3eb02395>
   114b4:	00040513          	mv	a0,s0
   114b8:	77d030ef          	jal	ra,15434 <__addsf3>
   114bc:	00050593          	mv	a1,a0
   114c0:	bfdcf537          	lui	a0,0xbfdcf
   114c4:	9a350513          	addi	a0,a0,-1629 # bfdce9a3 <__BSS_END__+0xbfd8c83f>
   114c8:	3c0040ef          	jal	ra,15888 <__divsf3>
   114cc:	00050593          	mv	a1,a0
   114d0:	00048513          	mv	a0,s1
   114d4:	761030ef          	jal	ra,15434 <__addsf3>
   114d8:	3f3175b7          	lui	a1,0x3f317
   114dc:	21858593          	addi	a1,a1,536 # 3f317218 <__BSS_END__+0x3f2d50b4>
   114e0:	0a5040ef          	jal	ra,15d84 <__mulsf3>
   114e4:	00050913          	mv	s2,a0
   114e8:	c1f005b7          	lui	a1,0xc1f00
   114ec:	000a0513          	mv	a0,s4
   114f0:	095040ef          	jal	ra,15d84 <__mulsf3>
   114f4:	c2fe05b7          	lui	a1,0xc2fe0
   114f8:	73d030ef          	jal	ra,15434 <__addsf3>
   114fc:	000a0593          	mv	a1,s4
   11500:	085040ef          	jal	ra,15d84 <__mulsf3>
   11504:	c31d05b7          	lui	a1,0xc31d0
   11508:	72d030ef          	jal	ra,15434 <__addsf3>
   1150c:	000a0593          	mv	a1,s4
   11510:	075040ef          	jal	ra,15d84 <__mulsf3>
   11514:	c24005b7          	lui	a1,0xc2400
   11518:	71d030ef          	jal	ra,15434 <__addsf3>
   1151c:	00050413          	mv	s0,a0
   11520:	414005b7          	lui	a1,0x41400
   11524:	000a0513          	mv	a0,s4
   11528:	05d040ef          	jal	ra,15d84 <__mulsf3>
   1152c:	00050493          	mv	s1,a0
   11530:	3f8005b7          	lui	a1,0x3f800
   11534:	000a0513          	mv	a0,s4
   11538:	6fd030ef          	jal	ra,15434 <__addsf3>
   1153c:	00050593          	mv	a1,a0
   11540:	00048513          	mv	a0,s1
   11544:	041040ef          	jal	ra,15d84 <__mulsf3>
   11548:	00050593          	mv	a1,a0
   1154c:	00098513          	mv	a0,s3
   11550:	035040ef          	jal	ra,15d84 <__mulsf3>
   11554:	00050593          	mv	a1,a0
   11558:	00098513          	mv	a0,s3
   1155c:	029040ef          	jal	ra,15d84 <__mulsf3>
   11560:	00050593          	mv	a1,a0
   11564:	00040513          	mv	a0,s0
   11568:	320040ef          	jal	ra,15888 <__divsf3>
   1156c:	00090593          	mv	a1,s2
   11570:	6c5030ef          	jal	ra,15434 <__addsf3>
   11574:	00812a03          	lw	s4,8(sp)
   11578:	00c12983          	lw	s3,12(sp)
   1157c:	01012903          	lw	s2,16(sp)
   11580:	01412483          	lw	s1,20(sp)
   11584:	01812403          	lw	s0,24(sp)
   11588:	01c12083          	lw	ra,28(sp)
   1158c:	02010113          	addi	sp,sp,32
   11590:	00008067          	ret

00011594 <fasterdigamma>:
   11594:	ff010113          	addi	sp,sp,-16
   11598:	00112623          	sw	ra,12(sp)
   1159c:	00812423          	sw	s0,8(sp)
   115a0:	00912223          	sw	s1,4(sp)
   115a4:	00050413          	mv	s0,a0
   115a8:	3f8005b7          	lui	a1,0x3f800
   115ac:	689030ef          	jal	ra,15434 <__addsf3>
   115b0:	00050493          	mv	s1,a0
   115b4:	bf800537          	lui	a0,0xbf800
   115b8:	00040593          	mv	a1,s0
   115bc:	2cc040ef          	jal	ra,15888 <__divsf3>
   115c0:	00050413          	mv	s0,a0
   115c4:	00048513          	mv	a0,s1
   115c8:	00048593          	mv	a1,s1
   115cc:	669030ef          	jal	ra,15434 <__addsf3>
   115d0:	00050593          	mv	a1,a0
   115d4:	3f800537          	lui	a0,0x3f800
   115d8:	2b0040ef          	jal	ra,15888 <__divsf3>
   115dc:	00050593          	mv	a1,a0
   115e0:	00040513          	mv	a0,s0
   115e4:	319040ef          	jal	ra,160fc <__subsf3>
   115e8:	00050413          	mv	s0,a0
   115ec:	00048513          	mv	a0,s1
   115f0:	160050ef          	jal	ra,16750 <__floatunsisf>
   115f4:	33b175b7          	lui	a1,0x33b17
   115f8:	21858593          	addi	a1,a1,536 # 33b17218 <__BSS_END__+0x33ad50b4>
   115fc:	788040ef          	jal	ra,15d84 <__mulsf3>
   11600:	c2b005b7          	lui	a1,0xc2b00
   11604:	add58593          	addi	a1,a1,-1315 # c2affadd <__BSS_END__+0xc2abd979>
   11608:	62d030ef          	jal	ra,15434 <__addsf3>
   1160c:	00040593          	mv	a1,s0
   11610:	625030ef          	jal	ra,15434 <__addsf3>
   11614:	00412483          	lw	s1,4(sp)
   11618:	00812403          	lw	s0,8(sp)
   1161c:	00c12083          	lw	ra,12(sp)
   11620:	01010113          	addi	sp,sp,16
   11624:	00008067          	ret

00011628 <fastsinh>:
   11628:	fd010113          	addi	sp,sp,-48
   1162c:	02112623          	sw	ra,44(sp)
   11630:	02812423          	sw	s0,40(sp)
   11634:	02912223          	sw	s1,36(sp)
   11638:	03212023          	sw	s2,32(sp)
   1163c:	01312e23          	sw	s3,28(sp)
   11640:	01412c23          	sw	s4,24(sp)
   11644:	01512a23          	sw	s5,20(sp)
   11648:	01612823          	sw	s6,16(sp)
   1164c:	01712623          	sw	s7,12(sp)
   11650:	01812423          	sw	s8,8(sp)
   11654:	01912223          	sw	s9,4(sp)
   11658:	00050913          	mv	s2,a0
   1165c:	3fb8b537          	lui	a0,0x3fb8b
   11660:	a3b50593          	addi	a1,a0,-1477 # 3fb8aa3b <__BSS_END__+0x3fb488d7>
   11664:	00090513          	mv	a0,s2
   11668:	71c040ef          	jal	ra,15d84 <__mulsf3>
   1166c:	00050493          	mv	s1,a0
   11670:	00000593          	li	a1,0
   11674:	658040ef          	jal	ra,15ccc <__lesf2>
   11678:	41f55513          	srai	a0,a0,0x1f
   1167c:	3f800cb7          	lui	s9,0x3f800
   11680:	019579b3          	and	s3,a0,s9
   11684:	c2fc05b7          	lui	a1,0xc2fc0
   11688:	c2fc0c37          	lui	s8,0xc2fc0
   1168c:	00048513          	mv	a0,s1
   11690:	63c040ef          	jal	ra,15ccc <__lesf2>
   11694:	c2fc0437          	lui	s0,0xc2fc0
   11698:	00054463          	bltz	a0,116a0 <fastsinh+0x78>
   1169c:	00048413          	mv	s0,s1
   116a0:	00040513          	mv	a0,s0
   116a4:	6c5040ef          	jal	ra,16568 <__fixsfsi>
   116a8:	795040ef          	jal	ra,1663c <__floatsisf>
   116ac:	00050593          	mv	a1,a0
   116b0:	00040513          	mv	a0,s0
   116b4:	249040ef          	jal	ra,160fc <__subsf3>
   116b8:	00050593          	mv	a1,a0
   116bc:	00098513          	mv	a0,s3
   116c0:	575030ef          	jal	ra,15434 <__addsf3>
   116c4:	00050493          	mv	s1,a0
   116c8:	42f29537          	lui	a0,0x42f29
   116cc:	c5150993          	addi	s3,a0,-943 # 42f28c51 <__BSS_END__+0x42ee6aed>
   116d0:	00040513          	mv	a0,s0
   116d4:	00098593          	mv	a1,s3
   116d8:	55d030ef          	jal	ra,15434 <__addsf3>
   116dc:	00050413          	mv	s0,a0
   116e0:	409af537          	lui	a0,0x409af
   116e4:	5f850a13          	addi	s4,a0,1528 # 409af5f8 <__BSS_END__+0x4096d494>
   116e8:	000a0513          	mv	a0,s4
   116ec:	00048593          	mv	a1,s1
   116f0:	20d040ef          	jal	ra,160fc <__subsf3>
   116f4:	00050593          	mv	a1,a0
   116f8:	41ddd537          	lui	a0,0x41ddd
   116fc:	2fe50a93          	addi	s5,a0,766 # 41ddd2fe <__BSS_END__+0x41d9b19a>
   11700:	000a8513          	mv	a0,s5
   11704:	184040ef          	jal	ra,15888 <__divsf3>
   11708:	00050593          	mv	a1,a0
   1170c:	00040513          	mv	a0,s0
   11710:	525030ef          	jal	ra,15434 <__addsf3>
   11714:	00050413          	mv	s0,a0
   11718:	3fbec537          	lui	a0,0x3fbec
   1171c:	c8d50b93          	addi	s7,a0,-883 # 3fbebc8d <__BSS_END__+0x3fba9b29>
   11720:	00048513          	mv	a0,s1
   11724:	000b8593          	mv	a1,s7
   11728:	65c040ef          	jal	ra,15d84 <__mulsf3>
   1172c:	00050593          	mv	a1,a0
   11730:	00040513          	mv	a0,s0
   11734:	1c9040ef          	jal	ra,160fc <__subsf3>
   11738:	4b0005b7          	lui	a1,0x4b000
   1173c:	648040ef          	jal	ra,15d84 <__mulsf3>
   11740:	699040ef          	jal	ra,165d8 <__fixunssfsi>
   11744:	00050b13          	mv	s6,a0
   11748:	bfb8b537          	lui	a0,0xbfb8b
   1174c:	a3b50593          	addi	a1,a0,-1477 # bfb8aa3b <__BSS_END__+0xbfb488d7>
   11750:	00090513          	mv	a0,s2
   11754:	630040ef          	jal	ra,15d84 <__mulsf3>
   11758:	00050413          	mv	s0,a0
   1175c:	00000593          	li	a1,0
   11760:	56c040ef          	jal	ra,15ccc <__lesf2>
   11764:	41f55513          	srai	a0,a0,0x1f
   11768:	019574b3          	and	s1,a0,s9
   1176c:	c2fc05b7          	lui	a1,0xc2fc0
   11770:	00040513          	mv	a0,s0
   11774:	558040ef          	jal	ra,15ccc <__lesf2>
   11778:	00054463          	bltz	a0,11780 <fastsinh+0x158>
   1177c:	00040c13          	mv	s8,s0
   11780:	000c0513          	mv	a0,s8
   11784:	5e5040ef          	jal	ra,16568 <__fixsfsi>
   11788:	6b5040ef          	jal	ra,1663c <__floatsisf>
   1178c:	00050593          	mv	a1,a0
   11790:	000c0513          	mv	a0,s8
   11794:	169040ef          	jal	ra,160fc <__subsf3>
   11798:	00050593          	mv	a1,a0
   1179c:	00048513          	mv	a0,s1
   117a0:	495030ef          	jal	ra,15434 <__addsf3>
   117a4:	00050413          	mv	s0,a0
   117a8:	000c0513          	mv	a0,s8
   117ac:	00098593          	mv	a1,s3
   117b0:	485030ef          	jal	ra,15434 <__addsf3>
   117b4:	00050493          	mv	s1,a0
   117b8:	000a0513          	mv	a0,s4
   117bc:	00040593          	mv	a1,s0
   117c0:	13d040ef          	jal	ra,160fc <__subsf3>
   117c4:	00050593          	mv	a1,a0
   117c8:	000a8513          	mv	a0,s5
   117cc:	0bc040ef          	jal	ra,15888 <__divsf3>
   117d0:	00050593          	mv	a1,a0
   117d4:	00048513          	mv	a0,s1
   117d8:	45d030ef          	jal	ra,15434 <__addsf3>
   117dc:	00050493          	mv	s1,a0
   117e0:	00040513          	mv	a0,s0
   117e4:	000b8593          	mv	a1,s7
   117e8:	59c040ef          	jal	ra,15d84 <__mulsf3>
   117ec:	00050593          	mv	a1,a0
   117f0:	00048513          	mv	a0,s1
   117f4:	109040ef          	jal	ra,160fc <__subsf3>
   117f8:	4b0005b7          	lui	a1,0x4b000
   117fc:	588040ef          	jal	ra,15d84 <__mulsf3>
   11800:	5d9040ef          	jal	ra,165d8 <__fixunssfsi>
   11804:	00050593          	mv	a1,a0
   11808:	000b0513          	mv	a0,s6
   1180c:	0f1040ef          	jal	ra,160fc <__subsf3>
   11810:	3f0005b7          	lui	a1,0x3f000
   11814:	570040ef          	jal	ra,15d84 <__mulsf3>
   11818:	00412c83          	lw	s9,4(sp)
   1181c:	00812c03          	lw	s8,8(sp)
   11820:	00c12b83          	lw	s7,12(sp)
   11824:	01012b03          	lw	s6,16(sp)
   11828:	01412a83          	lw	s5,20(sp)
   1182c:	01812a03          	lw	s4,24(sp)
   11830:	01c12983          	lw	s3,28(sp)
   11834:	02012903          	lw	s2,32(sp)
   11838:	02412483          	lw	s1,36(sp)
   1183c:	02812403          	lw	s0,40(sp)
   11840:	02c12083          	lw	ra,44(sp)
   11844:	03010113          	addi	sp,sp,48
   11848:	00008067          	ret

0001184c <fastersinh>:
   1184c:	fe010113          	addi	sp,sp,-32
   11850:	00112e23          	sw	ra,28(sp)
   11854:	00812c23          	sw	s0,24(sp)
   11858:	00912a23          	sw	s1,20(sp)
   1185c:	01212823          	sw	s2,16(sp)
   11860:	01312623          	sw	s3,12(sp)
   11864:	00050493          	mv	s1,a0
   11868:	3fb8b537          	lui	a0,0x3fb8b
   1186c:	a3b50593          	addi	a1,a0,-1477 # 3fb8aa3b <__BSS_END__+0x3fb488d7>
   11870:	00048513          	mv	a0,s1
   11874:	510040ef          	jal	ra,15d84 <__mulsf3>
   11878:	00050413          	mv	s0,a0
   1187c:	c2fc05b7          	lui	a1,0xc2fc0
   11880:	c2fc0937          	lui	s2,0xc2fc0
   11884:	448040ef          	jal	ra,15ccc <__lesf2>
   11888:	00050593          	mv	a1,a0
   1188c:	c2fc0537          	lui	a0,0xc2fc0
   11890:	0005c463          	bltz	a1,11898 <fastersinh+0x4c>
   11894:	00040513          	mv	a0,s0
   11898:	42fde5b7          	lui	a1,0x42fde
   1189c:	2a958413          	addi	s0,a1,681 # 42fde2a9 <__BSS_END__+0x42f9c145>
   118a0:	00040593          	mv	a1,s0
   118a4:	391030ef          	jal	ra,15434 <__addsf3>
   118a8:	4b0005b7          	lui	a1,0x4b000
   118ac:	4d8040ef          	jal	ra,15d84 <__mulsf3>
   118b0:	529040ef          	jal	ra,165d8 <__fixunssfsi>
   118b4:	00050993          	mv	s3,a0
   118b8:	bfb8b537          	lui	a0,0xbfb8b
   118bc:	a3b50593          	addi	a1,a0,-1477 # bfb8aa3b <__BSS_END__+0xbfb488d7>
   118c0:	00048513          	mv	a0,s1
   118c4:	4c0040ef          	jal	ra,15d84 <__mulsf3>
   118c8:	00050493          	mv	s1,a0
   118cc:	c2fc05b7          	lui	a1,0xc2fc0
   118d0:	3fc040ef          	jal	ra,15ccc <__lesf2>
   118d4:	00054463          	bltz	a0,118dc <fastersinh+0x90>
   118d8:	00048913          	mv	s2,s1
   118dc:	00090513          	mv	a0,s2
   118e0:	00040593          	mv	a1,s0
   118e4:	351030ef          	jal	ra,15434 <__addsf3>
   118e8:	4b0005b7          	lui	a1,0x4b000
   118ec:	498040ef          	jal	ra,15d84 <__mulsf3>
   118f0:	4e9040ef          	jal	ra,165d8 <__fixunssfsi>
   118f4:	00050593          	mv	a1,a0
   118f8:	00098513          	mv	a0,s3
   118fc:	001040ef          	jal	ra,160fc <__subsf3>
   11900:	3f0005b7          	lui	a1,0x3f000
   11904:	480040ef          	jal	ra,15d84 <__mulsf3>
   11908:	00c12983          	lw	s3,12(sp)
   1190c:	01012903          	lw	s2,16(sp)
   11910:	01412483          	lw	s1,20(sp)
   11914:	01812403          	lw	s0,24(sp)
   11918:	01c12083          	lw	ra,28(sp)
   1191c:	02010113          	addi	sp,sp,32
   11920:	00008067          	ret

00011924 <fastcosh>:
   11924:	fd010113          	addi	sp,sp,-48
   11928:	02112623          	sw	ra,44(sp)
   1192c:	02812423          	sw	s0,40(sp)
   11930:	02912223          	sw	s1,36(sp)
   11934:	03212023          	sw	s2,32(sp)
   11938:	01312e23          	sw	s3,28(sp)
   1193c:	01412c23          	sw	s4,24(sp)
   11940:	01512a23          	sw	s5,20(sp)
   11944:	01612823          	sw	s6,16(sp)
   11948:	01712623          	sw	s7,12(sp)
   1194c:	01812423          	sw	s8,8(sp)
   11950:	01912223          	sw	s9,4(sp)
   11954:	00050913          	mv	s2,a0
   11958:	3fb8b537          	lui	a0,0x3fb8b
   1195c:	a3b50593          	addi	a1,a0,-1477 # 3fb8aa3b <__BSS_END__+0x3fb488d7>
   11960:	00090513          	mv	a0,s2
   11964:	420040ef          	jal	ra,15d84 <__mulsf3>
   11968:	00050493          	mv	s1,a0
   1196c:	00000593          	li	a1,0
   11970:	35c040ef          	jal	ra,15ccc <__lesf2>
   11974:	41f55513          	srai	a0,a0,0x1f
   11978:	3f800cb7          	lui	s9,0x3f800
   1197c:	019579b3          	and	s3,a0,s9
   11980:	c2fc05b7          	lui	a1,0xc2fc0
   11984:	c2fc0c37          	lui	s8,0xc2fc0
   11988:	00048513          	mv	a0,s1
   1198c:	340040ef          	jal	ra,15ccc <__lesf2>
   11990:	c2fc0437          	lui	s0,0xc2fc0
   11994:	00054463          	bltz	a0,1199c <fastcosh+0x78>
   11998:	00048413          	mv	s0,s1
   1199c:	00040513          	mv	a0,s0
   119a0:	3c9040ef          	jal	ra,16568 <__fixsfsi>
   119a4:	499040ef          	jal	ra,1663c <__floatsisf>
   119a8:	00050593          	mv	a1,a0
   119ac:	00040513          	mv	a0,s0
   119b0:	74c040ef          	jal	ra,160fc <__subsf3>
   119b4:	00050593          	mv	a1,a0
   119b8:	00098513          	mv	a0,s3
   119bc:	279030ef          	jal	ra,15434 <__addsf3>
   119c0:	00050493          	mv	s1,a0
   119c4:	42f29537          	lui	a0,0x42f29
   119c8:	c5150993          	addi	s3,a0,-943 # 42f28c51 <__BSS_END__+0x42ee6aed>
   119cc:	00040513          	mv	a0,s0
   119d0:	00098593          	mv	a1,s3
   119d4:	261030ef          	jal	ra,15434 <__addsf3>
   119d8:	00050413          	mv	s0,a0
   119dc:	409af537          	lui	a0,0x409af
   119e0:	5f850a13          	addi	s4,a0,1528 # 409af5f8 <__BSS_END__+0x4096d494>
   119e4:	000a0513          	mv	a0,s4
   119e8:	00048593          	mv	a1,s1
   119ec:	710040ef          	jal	ra,160fc <__subsf3>
   119f0:	00050593          	mv	a1,a0
   119f4:	41ddd537          	lui	a0,0x41ddd
   119f8:	2fe50a93          	addi	s5,a0,766 # 41ddd2fe <__BSS_END__+0x41d9b19a>
   119fc:	000a8513          	mv	a0,s5
   11a00:	689030ef          	jal	ra,15888 <__divsf3>
   11a04:	00050593          	mv	a1,a0
   11a08:	00040513          	mv	a0,s0
   11a0c:	229030ef          	jal	ra,15434 <__addsf3>
   11a10:	00050413          	mv	s0,a0
   11a14:	3fbec537          	lui	a0,0x3fbec
   11a18:	c8d50b93          	addi	s7,a0,-883 # 3fbebc8d <__BSS_END__+0x3fba9b29>
   11a1c:	00048513          	mv	a0,s1
   11a20:	000b8593          	mv	a1,s7
   11a24:	360040ef          	jal	ra,15d84 <__mulsf3>
   11a28:	00050593          	mv	a1,a0
   11a2c:	00040513          	mv	a0,s0
   11a30:	6cc040ef          	jal	ra,160fc <__subsf3>
   11a34:	4b0005b7          	lui	a1,0x4b000
   11a38:	34c040ef          	jal	ra,15d84 <__mulsf3>
   11a3c:	39d040ef          	jal	ra,165d8 <__fixunssfsi>
   11a40:	00050b13          	mv	s6,a0
   11a44:	bfb8b537          	lui	a0,0xbfb8b
   11a48:	a3b50593          	addi	a1,a0,-1477 # bfb8aa3b <__BSS_END__+0xbfb488d7>
   11a4c:	00090513          	mv	a0,s2
   11a50:	334040ef          	jal	ra,15d84 <__mulsf3>
   11a54:	00050413          	mv	s0,a0
   11a58:	00000593          	li	a1,0
   11a5c:	270040ef          	jal	ra,15ccc <__lesf2>
   11a60:	41f55513          	srai	a0,a0,0x1f
   11a64:	019574b3          	and	s1,a0,s9
   11a68:	c2fc05b7          	lui	a1,0xc2fc0
   11a6c:	00040513          	mv	a0,s0
   11a70:	25c040ef          	jal	ra,15ccc <__lesf2>
   11a74:	00054463          	bltz	a0,11a7c <fastcosh+0x158>
   11a78:	00040c13          	mv	s8,s0
   11a7c:	000c0513          	mv	a0,s8
   11a80:	2e9040ef          	jal	ra,16568 <__fixsfsi>
   11a84:	3b9040ef          	jal	ra,1663c <__floatsisf>
   11a88:	00050593          	mv	a1,a0
   11a8c:	000c0513          	mv	a0,s8
   11a90:	66c040ef          	jal	ra,160fc <__subsf3>
   11a94:	00050593          	mv	a1,a0
   11a98:	00048513          	mv	a0,s1
   11a9c:	199030ef          	jal	ra,15434 <__addsf3>
   11aa0:	00050413          	mv	s0,a0
   11aa4:	000c0513          	mv	a0,s8
   11aa8:	00098593          	mv	a1,s3
   11aac:	189030ef          	jal	ra,15434 <__addsf3>
   11ab0:	00050493          	mv	s1,a0
   11ab4:	000a0513          	mv	a0,s4
   11ab8:	00040593          	mv	a1,s0
   11abc:	640040ef          	jal	ra,160fc <__subsf3>
   11ac0:	00050593          	mv	a1,a0
   11ac4:	000a8513          	mv	a0,s5
   11ac8:	5c1030ef          	jal	ra,15888 <__divsf3>
   11acc:	00050593          	mv	a1,a0
   11ad0:	00048513          	mv	a0,s1
   11ad4:	161030ef          	jal	ra,15434 <__addsf3>
   11ad8:	00050493          	mv	s1,a0
   11adc:	00040513          	mv	a0,s0
   11ae0:	000b8593          	mv	a1,s7
   11ae4:	2a0040ef          	jal	ra,15d84 <__mulsf3>
   11ae8:	00050593          	mv	a1,a0
   11aec:	00048513          	mv	a0,s1
   11af0:	60c040ef          	jal	ra,160fc <__subsf3>
   11af4:	4b0005b7          	lui	a1,0x4b000
   11af8:	28c040ef          	jal	ra,15d84 <__mulsf3>
   11afc:	2dd040ef          	jal	ra,165d8 <__fixunssfsi>
   11b00:	00050593          	mv	a1,a0
   11b04:	000b0513          	mv	a0,s6
   11b08:	12d030ef          	jal	ra,15434 <__addsf3>
   11b0c:	3f0005b7          	lui	a1,0x3f000
   11b10:	274040ef          	jal	ra,15d84 <__mulsf3>
   11b14:	00412c83          	lw	s9,4(sp)
   11b18:	00812c03          	lw	s8,8(sp)
   11b1c:	00c12b83          	lw	s7,12(sp)
   11b20:	01012b03          	lw	s6,16(sp)
   11b24:	01412a83          	lw	s5,20(sp)
   11b28:	01812a03          	lw	s4,24(sp)
   11b2c:	01c12983          	lw	s3,28(sp)
   11b30:	02012903          	lw	s2,32(sp)
   11b34:	02412483          	lw	s1,36(sp)
   11b38:	02812403          	lw	s0,40(sp)
   11b3c:	02c12083          	lw	ra,44(sp)
   11b40:	03010113          	addi	sp,sp,48
   11b44:	00008067          	ret

00011b48 <fastercosh>:
   11b48:	fe010113          	addi	sp,sp,-32
   11b4c:	00112e23          	sw	ra,28(sp)
   11b50:	00812c23          	sw	s0,24(sp)
   11b54:	00912a23          	sw	s1,20(sp)
   11b58:	01212823          	sw	s2,16(sp)
   11b5c:	01312623          	sw	s3,12(sp)
   11b60:	00050493          	mv	s1,a0
   11b64:	3fb8b537          	lui	a0,0x3fb8b
   11b68:	a3b50593          	addi	a1,a0,-1477 # 3fb8aa3b <__BSS_END__+0x3fb488d7>
   11b6c:	00048513          	mv	a0,s1
   11b70:	214040ef          	jal	ra,15d84 <__mulsf3>
   11b74:	00050413          	mv	s0,a0
   11b78:	c2fc05b7          	lui	a1,0xc2fc0
   11b7c:	c2fc0937          	lui	s2,0xc2fc0
   11b80:	14c040ef          	jal	ra,15ccc <__lesf2>
   11b84:	00050593          	mv	a1,a0
   11b88:	c2fc0537          	lui	a0,0xc2fc0
   11b8c:	0005c463          	bltz	a1,11b94 <fastercosh+0x4c>
   11b90:	00040513          	mv	a0,s0
   11b94:	42fde5b7          	lui	a1,0x42fde
   11b98:	2a958413          	addi	s0,a1,681 # 42fde2a9 <__BSS_END__+0x42f9c145>
   11b9c:	00040593          	mv	a1,s0
   11ba0:	095030ef          	jal	ra,15434 <__addsf3>
   11ba4:	4b0005b7          	lui	a1,0x4b000
   11ba8:	1dc040ef          	jal	ra,15d84 <__mulsf3>
   11bac:	22d040ef          	jal	ra,165d8 <__fixunssfsi>
   11bb0:	00050993          	mv	s3,a0
   11bb4:	bfb8b537          	lui	a0,0xbfb8b
   11bb8:	a3b50593          	addi	a1,a0,-1477 # bfb8aa3b <__BSS_END__+0xbfb488d7>
   11bbc:	00048513          	mv	a0,s1
   11bc0:	1c4040ef          	jal	ra,15d84 <__mulsf3>
   11bc4:	00050493          	mv	s1,a0
   11bc8:	c2fc05b7          	lui	a1,0xc2fc0
   11bcc:	100040ef          	jal	ra,15ccc <__lesf2>
   11bd0:	00054463          	bltz	a0,11bd8 <fastercosh+0x90>
   11bd4:	00048913          	mv	s2,s1
   11bd8:	00090513          	mv	a0,s2
   11bdc:	00040593          	mv	a1,s0
   11be0:	055030ef          	jal	ra,15434 <__addsf3>
   11be4:	4b0005b7          	lui	a1,0x4b000
   11be8:	19c040ef          	jal	ra,15d84 <__mulsf3>
   11bec:	1ed040ef          	jal	ra,165d8 <__fixunssfsi>
   11bf0:	00050593          	mv	a1,a0
   11bf4:	00098513          	mv	a0,s3
   11bf8:	03d030ef          	jal	ra,15434 <__addsf3>
   11bfc:	3f0005b7          	lui	a1,0x3f000
   11c00:	184040ef          	jal	ra,15d84 <__mulsf3>
   11c04:	00c12983          	lw	s3,12(sp)
   11c08:	01012903          	lw	s2,16(sp)
   11c0c:	01412483          	lw	s1,20(sp)
   11c10:	01812403          	lw	s0,24(sp)
   11c14:	01c12083          	lw	ra,28(sp)
   11c18:	02010113          	addi	sp,sp,32
   11c1c:	00008067          	ret

00011c20 <fasttanh>:
   11c20:	ff010113          	addi	sp,sp,-16
   11c24:	00112623          	sw	ra,12(sp)
   11c28:	00812423          	sw	s0,8(sp)
   11c2c:	00912223          	sw	s1,4(sp)
   11c30:	01212023          	sw	s2,0(sp)
   11c34:	c00005b7          	lui	a1,0xc0000
   11c38:	14c040ef          	jal	ra,15d84 <__mulsf3>
   11c3c:	3fb8b5b7          	lui	a1,0x3fb8b
   11c40:	a3b58593          	addi	a1,a1,-1477 # 3fb8aa3b <__BSS_END__+0x3fb488d7>
   11c44:	140040ef          	jal	ra,15d84 <__mulsf3>
   11c48:	00050493          	mv	s1,a0
   11c4c:	00000593          	li	a1,0
   11c50:	07c040ef          	jal	ra,15ccc <__lesf2>
   11c54:	41f55513          	srai	a0,a0,0x1f
   11c58:	3f8005b7          	lui	a1,0x3f800
   11c5c:	00b57933          	and	s2,a0,a1
   11c60:	c2fc05b7          	lui	a1,0xc2fc0
   11c64:	c2fc0437          	lui	s0,0xc2fc0
   11c68:	00048513          	mv	a0,s1
   11c6c:	060040ef          	jal	ra,15ccc <__lesf2>
   11c70:	00054463          	bltz	a0,11c78 <fasttanh+0x58>
   11c74:	00048413          	mv	s0,s1
   11c78:	00040513          	mv	a0,s0
   11c7c:	0ed040ef          	jal	ra,16568 <__fixsfsi>
   11c80:	1bd040ef          	jal	ra,1663c <__floatsisf>
   11c84:	00050593          	mv	a1,a0
   11c88:	00040513          	mv	a0,s0
   11c8c:	470040ef          	jal	ra,160fc <__subsf3>
   11c90:	00050593          	mv	a1,a0
   11c94:	00090513          	mv	a0,s2
   11c98:	79c030ef          	jal	ra,15434 <__addsf3>
   11c9c:	00050493          	mv	s1,a0
   11ca0:	42f29537          	lui	a0,0x42f29
   11ca4:	c5150593          	addi	a1,a0,-943 # 42f28c51 <__BSS_END__+0x42ee6aed>
   11ca8:	00040513          	mv	a0,s0
   11cac:	788030ef          	jal	ra,15434 <__addsf3>
   11cb0:	00050413          	mv	s0,a0
   11cb4:	409af537          	lui	a0,0x409af
   11cb8:	5f850513          	addi	a0,a0,1528 # 409af5f8 <__BSS_END__+0x4096d494>
   11cbc:	00048593          	mv	a1,s1
   11cc0:	43c040ef          	jal	ra,160fc <__subsf3>
   11cc4:	00050593          	mv	a1,a0
   11cc8:	41ddd537          	lui	a0,0x41ddd
   11ccc:	2fe50513          	addi	a0,a0,766 # 41ddd2fe <__BSS_END__+0x41d9b19a>
   11cd0:	3b9030ef          	jal	ra,15888 <__divsf3>
   11cd4:	00050593          	mv	a1,a0
   11cd8:	00040513          	mv	a0,s0
   11cdc:	758030ef          	jal	ra,15434 <__addsf3>
   11ce0:	00050413          	mv	s0,a0
   11ce4:	bfbec537          	lui	a0,0xbfbec
   11ce8:	c8d50593          	addi	a1,a0,-883 # bfbebc8d <__BSS_END__+0xbfba9b29>
   11cec:	00048513          	mv	a0,s1
   11cf0:	094040ef          	jal	ra,15d84 <__mulsf3>
   11cf4:	00050593          	mv	a1,a0
   11cf8:	00040513          	mv	a0,s0
   11cfc:	738030ef          	jal	ra,15434 <__addsf3>
   11d00:	4b0005b7          	lui	a1,0x4b000
   11d04:	080040ef          	jal	ra,15d84 <__mulsf3>
   11d08:	0d1040ef          	jal	ra,165d8 <__fixunssfsi>
   11d0c:	3f8005b7          	lui	a1,0x3f800
   11d10:	724030ef          	jal	ra,15434 <__addsf3>
   11d14:	00050593          	mv	a1,a0
   11d18:	40000537          	lui	a0,0x40000
   11d1c:	36d030ef          	jal	ra,15888 <__divsf3>
   11d20:	bf8005b7          	lui	a1,0xbf800
   11d24:	710030ef          	jal	ra,15434 <__addsf3>
   11d28:	00012903          	lw	s2,0(sp)
   11d2c:	00412483          	lw	s1,4(sp)
   11d30:	00812403          	lw	s0,8(sp)
   11d34:	00c12083          	lw	ra,12(sp)
   11d38:	01010113          	addi	sp,sp,16
   11d3c:	00008067          	ret

00011d40 <fastertanh>:
   11d40:	ff010113          	addi	sp,sp,-16
   11d44:	00112623          	sw	ra,12(sp)
   11d48:	00812423          	sw	s0,8(sp)
   11d4c:	00912223          	sw	s1,4(sp)
   11d50:	c00005b7          	lui	a1,0xc0000
   11d54:	030040ef          	jal	ra,15d84 <__mulsf3>
   11d58:	3fb8b5b7          	lui	a1,0x3fb8b
   11d5c:	a3b58593          	addi	a1,a1,-1477 # 3fb8aa3b <__BSS_END__+0x3fb488d7>
   11d60:	024040ef          	jal	ra,15d84 <__mulsf3>
   11d64:	00050493          	mv	s1,a0
   11d68:	c2fc05b7          	lui	a1,0xc2fc0
   11d6c:	c2fc0437          	lui	s0,0xc2fc0
   11d70:	75d030ef          	jal	ra,15ccc <__lesf2>
   11d74:	00054463          	bltz	a0,11d7c <fastertanh+0x3c>
   11d78:	00048413          	mv	s0,s1
   11d7c:	42fde537          	lui	a0,0x42fde
   11d80:	2a950593          	addi	a1,a0,681 # 42fde2a9 <__BSS_END__+0x42f9c145>
   11d84:	00040513          	mv	a0,s0
   11d88:	6ac030ef          	jal	ra,15434 <__addsf3>
   11d8c:	4b0005b7          	lui	a1,0x4b000
   11d90:	7f5030ef          	jal	ra,15d84 <__mulsf3>
   11d94:	045040ef          	jal	ra,165d8 <__fixunssfsi>
   11d98:	3f8005b7          	lui	a1,0x3f800
   11d9c:	698030ef          	jal	ra,15434 <__addsf3>
   11da0:	00050593          	mv	a1,a0
   11da4:	40000537          	lui	a0,0x40000
   11da8:	2e1030ef          	jal	ra,15888 <__divsf3>
   11dac:	bf8005b7          	lui	a1,0xbf800
   11db0:	684030ef          	jal	ra,15434 <__addsf3>
   11db4:	00412483          	lw	s1,4(sp)
   11db8:	00812403          	lw	s0,8(sp)
   11dbc:	00c12083          	lw	ra,12(sp)
   11dc0:	01010113          	addi	sp,sp,16
   11dc4:	00008067          	ret

00011dc8 <fastlambertw>:
   11dc8:	fc010113          	addi	sp,sp,-64
   11dcc:	02112e23          	sw	ra,60(sp)
   11dd0:	02812c23          	sw	s0,56(sp)
   11dd4:	02912a23          	sw	s1,52(sp)
   11dd8:	03212823          	sw	s2,48(sp)
   11ddc:	03312623          	sw	s3,44(sp)
   11de0:	03412423          	sw	s4,40(sp)
   11de4:	03512223          	sw	s5,36(sp)
   11de8:	03612023          	sw	s6,32(sp)
   11dec:	01712e23          	sw	s7,28(sp)
   11df0:	01812c23          	sw	s8,24(sp)
   11df4:	01912a23          	sw	s9,20(sp)
   11df8:	01a12823          	sw	s10,16(sp)
   11dfc:	01b12623          	sw	s11,12(sp)
   11e00:	00050993          	mv	s3,a0
   11e04:	4010f537          	lui	a0,0x4010f
   11e08:	cc050593          	addi	a1,a0,-832 # 4010ecc0 <__BSS_END__+0x400ccb5c>
   11e0c:	00098513          	mv	a0,s3
   11e10:	6bd030ef          	jal	ra,15ccc <__lesf2>
   11e14:	41f55593          	srai	a1,a0,0x1f
   11e18:	40100637          	lui	a2,0x40100
   11e1c:	60360613          	addi	a2,a2,1539 # 40100603 <__BSS_END__+0x400be49f>
   11e20:	00c5f433          	and	s0,a1,a2
   11e24:	00054863          	bltz	a0,11e34 <fastlambertw+0x6c>
   11e28:	80000937          	lui	s2,0x80000
   11e2c:	3f800537          	lui	a0,0x3f800
   11e30:	0140006f          	j	11e44 <fastlambertw+0x7c>
   11e34:	3fc60537          	lui	a0,0x3fc60
   11e38:	fb150513          	addi	a0,a0,-79 # 3fc5ffb1 <__BSS_END__+0x3fc1de4d>
   11e3c:	3f3ce5b7          	lui	a1,0x3f3ce
   11e40:	e7e58913          	addi	s2,a1,-386 # 3f3cde7e <__BSS_END__+0x3f38bd1a>
   11e44:	00098593          	mv	a1,s3
   11e48:	73d030ef          	jal	ra,15d84 <__mulsf3>
   11e4c:	00050593          	mv	a1,a0
   11e50:	00040513          	mv	a0,s0
   11e54:	5e0030ef          	jal	ra,15434 <__addsf3>
   11e58:	008005b7          	lui	a1,0x800
   11e5c:	fff58d93          	addi	s11,a1,-1 # 7fffff <__BSS_END__+0x7bde9b>
   11e60:	01b575b3          	and	a1,a0,s11
   11e64:	3f000d37          	lui	s10,0x3f000
   11e68:	01a5e4b3          	or	s1,a1,s10
   11e6c:	0e5040ef          	jal	ra,16750 <__floatunsisf>
   11e70:	340005b7          	lui	a1,0x34000
   11e74:	711030ef          	jal	ra,15d84 <__mulsf3>
   11e78:	c2f875b7          	lui	a1,0xc2f87
   11e7c:	37758a13          	addi	s4,a1,887 # c2f87377 <__BSS_END__+0xc2f45213>
   11e80:	000a0593          	mv	a1,s4
   11e84:	5b0030ef          	jal	ra,15434 <__addsf3>
   11e88:	00050413          	mv	s0,a0
   11e8c:	3fbfc537          	lui	a0,0x3fbfc
   11e90:	f7550a93          	addi	s5,a0,-139 # 3fbfbf75 <__BSS_END__+0x3fbb9e11>
   11e94:	00048513          	mv	a0,s1
   11e98:	000a8593          	mv	a1,s5
   11e9c:	6e9030ef          	jal	ra,15d84 <__mulsf3>
   11ea0:	00050593          	mv	a1,a0
   11ea4:	00040513          	mv	a0,s0
   11ea8:	254040ef          	jal	ra,160fc <__subsf3>
   11eac:	00050413          	mv	s0,a0
   11eb0:	3eb44537          	lui	a0,0x3eb44
   11eb4:	4f950b13          	addi	s6,a0,1273 # 3eb444f9 <__BSS_END__+0x3eb02395>
   11eb8:	00048513          	mv	a0,s1
   11ebc:	000b0593          	mv	a1,s6
   11ec0:	574030ef          	jal	ra,15434 <__addsf3>
   11ec4:	00050593          	mv	a1,a0
   11ec8:	3fdcf537          	lui	a0,0x3fdcf
   11ecc:	9a350b93          	addi	s7,a0,-1629 # 3fdce9a3 <__BSS_END__+0x3fd8c83f>
   11ed0:	000b8513          	mv	a0,s7
   11ed4:	1b5030ef          	jal	ra,15888 <__divsf3>
   11ed8:	00050593          	mv	a1,a0
   11edc:	00040513          	mv	a0,s0
   11ee0:	21c040ef          	jal	ra,160fc <__subsf3>
   11ee4:	3f3175b7          	lui	a1,0x3f317
   11ee8:	21858c13          	addi	s8,a1,536 # 3f317218 <__BSS_END__+0x3f2d50b4>
   11eec:	000c0593          	mv	a1,s8
   11ef0:	695030ef          	jal	ra,15d84 <__mulsf3>
   11ef4:	00050c93          	mv	s9,a0
   11ef8:	01b57533          	and	a0,a0,s11
   11efc:	01a56433          	or	s0,a0,s10
   11f00:	000c8513          	mv	a0,s9
   11f04:	04d040ef          	jal	ra,16750 <__floatunsisf>
   11f08:	340005b7          	lui	a1,0x34000
   11f0c:	679030ef          	jal	ra,15d84 <__mulsf3>
   11f10:	000a0593          	mv	a1,s4
   11f14:	520030ef          	jal	ra,15434 <__addsf3>
   11f18:	00050493          	mv	s1,a0
   11f1c:	00040513          	mv	a0,s0
   11f20:	000a8593          	mv	a1,s5
   11f24:	661030ef          	jal	ra,15d84 <__mulsf3>
   11f28:	00050593          	mv	a1,a0
   11f2c:	00048513          	mv	a0,s1
   11f30:	1cc040ef          	jal	ra,160fc <__subsf3>
   11f34:	00050493          	mv	s1,a0
   11f38:	00040513          	mv	a0,s0
   11f3c:	000b0593          	mv	a1,s6
   11f40:	4f4030ef          	jal	ra,15434 <__addsf3>
   11f44:	00050593          	mv	a1,a0
   11f48:	000b8513          	mv	a0,s7
   11f4c:	13d030ef          	jal	ra,15888 <__divsf3>
   11f50:	00050593          	mv	a1,a0
   11f54:	00048513          	mv	a0,s1
   11f58:	1a4040ef          	jal	ra,160fc <__subsf3>
   11f5c:	000c0593          	mv	a1,s8
   11f60:	625030ef          	jal	ra,15d84 <__mulsf3>
   11f64:	00050413          	mv	s0,a0
   11f68:	00090513          	mv	a0,s2
   11f6c:	000c8593          	mv	a1,s9
   11f70:	18c040ef          	jal	ra,160fc <__subsf3>
   11f74:	00040593          	mv	a1,s0
   11f78:	4bc030ef          	jal	ra,15434 <__addsf3>
   11f7c:	00050493          	mv	s1,a0
   11f80:	00040513          	mv	a0,s0
   11f84:	000c8593          	mv	a1,s9
   11f88:	101030ef          	jal	ra,15888 <__divsf3>
   11f8c:	00050593          	mv	a1,a0
   11f90:	00048513          	mv	a0,s1
   11f94:	168040ef          	jal	ra,160fc <__subsf3>
   11f98:	00050913          	mv	s2,a0
   11f9c:	3fb8b537          	lui	a0,0x3fb8b
   11fa0:	a3b50593          	addi	a1,a0,-1477 # 3fb8aa3b <__BSS_END__+0x3fb488d7>
   11fa4:	00090513          	mv	a0,s2
   11fa8:	5dd030ef          	jal	ra,15d84 <__mulsf3>
   11fac:	00050413          	mv	s0,a0
   11fb0:	00000593          	li	a1,0
   11fb4:	519030ef          	jal	ra,15ccc <__lesf2>
   11fb8:	41f55513          	srai	a0,a0,0x1f
   11fbc:	3f8005b7          	lui	a1,0x3f800
   11fc0:	00b57a33          	and	s4,a0,a1
   11fc4:	c2fc05b7          	lui	a1,0xc2fc0
   11fc8:	c2fc04b7          	lui	s1,0xc2fc0
   11fcc:	00040513          	mv	a0,s0
   11fd0:	4fd030ef          	jal	ra,15ccc <__lesf2>
   11fd4:	00054463          	bltz	a0,11fdc <fastlambertw+0x214>
   11fd8:	00040493          	mv	s1,s0
   11fdc:	00048513          	mv	a0,s1
   11fe0:	588040ef          	jal	ra,16568 <__fixsfsi>
   11fe4:	658040ef          	jal	ra,1663c <__floatsisf>
   11fe8:	00050593          	mv	a1,a0
   11fec:	00048513          	mv	a0,s1
   11ff0:	10c040ef          	jal	ra,160fc <__subsf3>
   11ff4:	00050593          	mv	a1,a0
   11ff8:	000a0513          	mv	a0,s4
   11ffc:	438030ef          	jal	ra,15434 <__addsf3>
   12000:	00050413          	mv	s0,a0
   12004:	42f29537          	lui	a0,0x42f29
   12008:	c5150593          	addi	a1,a0,-943 # 42f28c51 <__BSS_END__+0x42ee6aed>
   1200c:	00048513          	mv	a0,s1
   12010:	424030ef          	jal	ra,15434 <__addsf3>
   12014:	00050493          	mv	s1,a0
   12018:	409af537          	lui	a0,0x409af
   1201c:	5f850513          	addi	a0,a0,1528 # 409af5f8 <__BSS_END__+0x4096d494>
   12020:	00040593          	mv	a1,s0
   12024:	0d8040ef          	jal	ra,160fc <__subsf3>
   12028:	00050593          	mv	a1,a0
   1202c:	41ddd537          	lui	a0,0x41ddd
   12030:	2fe50513          	addi	a0,a0,766 # 41ddd2fe <__BSS_END__+0x41d9b19a>
   12034:	055030ef          	jal	ra,15888 <__divsf3>
   12038:	00048593          	mv	a1,s1
   1203c:	3f8030ef          	jal	ra,15434 <__addsf3>
   12040:	00050493          	mv	s1,a0
   12044:	bfbec537          	lui	a0,0xbfbec
   12048:	c8d50593          	addi	a1,a0,-883 # bfbebc8d <__BSS_END__+0xbfba9b29>
   1204c:	00040513          	mv	a0,s0
   12050:	535030ef          	jal	ra,15d84 <__mulsf3>
   12054:	00050593          	mv	a1,a0
   12058:	00048513          	mv	a0,s1
   1205c:	3d8030ef          	jal	ra,15434 <__addsf3>
   12060:	4b0005b7          	lui	a1,0x4b000
   12064:	521030ef          	jal	ra,15d84 <__mulsf3>
   12068:	570040ef          	jal	ra,165d8 <__fixunssfsi>
   1206c:	00098593          	mv	a1,s3
   12070:	515030ef          	jal	ra,15d84 <__mulsf3>
   12074:	00050413          	mv	s0,a0
   12078:	00090593          	mv	a1,s2
   1207c:	080040ef          	jal	ra,160fc <__subsf3>
   12080:	00050493          	mv	s1,a0
   12084:	00040513          	mv	a0,s0
   12088:	00040593          	mv	a1,s0
   1208c:	3a8030ef          	jal	ra,15434 <__addsf3>
   12090:	00050993          	mv	s3,a0
   12094:	408005b7          	lui	a1,0x40800
   12098:	00040513          	mv	a0,s0
   1209c:	4e9030ef          	jal	ra,15d84 <__mulsf3>
   120a0:	00050413          	mv	s0,a0
   120a4:	00090513          	mv	a0,s2
   120a8:	00048593          	mv	a1,s1
   120ac:	4d9030ef          	jal	ra,15d84 <__mulsf3>
   120b0:	00050593          	mv	a1,a0
   120b4:	00040513          	mv	a0,s0
   120b8:	044040ef          	jal	ra,160fc <__subsf3>
   120bc:	00050593          	mv	a1,a0
   120c0:	00090513          	mv	a0,s2
   120c4:	4c1030ef          	jal	ra,15d84 <__mulsf3>
   120c8:	00050593          	mv	a1,a0
   120cc:	00098513          	mv	a0,s3
   120d0:	02c040ef          	jal	ra,160fc <__subsf3>
   120d4:	00050413          	mv	s0,a0
   120d8:	40000537          	lui	a0,0x40000
   120dc:	00090593          	mv	a1,s2
   120e0:	01c040ef          	jal	ra,160fc <__subsf3>
   120e4:	00048593          	mv	a1,s1
   120e8:	49d030ef          	jal	ra,15d84 <__mulsf3>
   120ec:	400005b7          	lui	a1,0x40000
   120f0:	344030ef          	jal	ra,15434 <__addsf3>
   120f4:	00050593          	mv	a1,a0
   120f8:	00040513          	mv	a0,s0
   120fc:	78c030ef          	jal	ra,15888 <__divsf3>
   12100:	00c12d83          	lw	s11,12(sp)
   12104:	01012d03          	lw	s10,16(sp)
   12108:	01412c83          	lw	s9,20(sp)
   1210c:	01812c03          	lw	s8,24(sp)
   12110:	01c12b83          	lw	s7,28(sp)
   12114:	02012b03          	lw	s6,32(sp)
   12118:	02412a83          	lw	s5,36(sp)
   1211c:	02812a03          	lw	s4,40(sp)
   12120:	02c12983          	lw	s3,44(sp)
   12124:	03012903          	lw	s2,48(sp)
   12128:	03412483          	lw	s1,52(sp)
   1212c:	03812403          	lw	s0,56(sp)
   12130:	03c12083          	lw	ra,60(sp)
   12134:	04010113          	addi	sp,sp,64
   12138:	00008067          	ret

0001213c <fasterlambertw>:
   1213c:	fe010113          	addi	sp,sp,-32
   12140:	00112e23          	sw	ra,28(sp)
   12144:	00812c23          	sw	s0,24(sp)
   12148:	00912a23          	sw	s1,20(sp)
   1214c:	01212823          	sw	s2,16(sp)
   12150:	01312623          	sw	s3,12(sp)
   12154:	01412423          	sw	s4,8(sp)
   12158:	00050913          	mv	s2,a0
   1215c:	4010f537          	lui	a0,0x4010f
   12160:	cc050593          	addi	a1,a0,-832 # 4010ecc0 <__BSS_END__+0x400ccb5c>
   12164:	00090513          	mv	a0,s2
   12168:	365030ef          	jal	ra,15ccc <__lesf2>
   1216c:	00050593          	mv	a1,a0
   12170:	00054663          	bltz	a0,1217c <fasterlambertw+0x40>
   12174:	3f800537          	lui	a0,0x3f800
   12178:	00c0006f          	j	12184 <fasterlambertw+0x48>
   1217c:	3fc60537          	lui	a0,0x3fc60
   12180:	fb150513          	addi	a0,a0,-79 # 3fc5ffb1 <__BSS_END__+0x3fc1de4d>
   12184:	41f5d593          	srai	a1,a1,0x1f
   12188:	40100637          	lui	a2,0x40100
   1218c:	60360613          	addi	a2,a2,1539 # 40100603 <__BSS_END__+0x400be49f>
   12190:	00c5f433          	and	s0,a1,a2
   12194:	bf3ce637          	lui	a2,0xbf3ce
   12198:	e7e60613          	addi	a2,a2,-386 # bf3cde7e <__BSS_END__+0xbf38bd1a>
   1219c:	00c5f9b3          	and	s3,a1,a2
   121a0:	00090593          	mv	a1,s2
   121a4:	3e1030ef          	jal	ra,15d84 <__mulsf3>
   121a8:	00050593          	mv	a1,a0
   121ac:	00040513          	mv	a0,s0
   121b0:	284030ef          	jal	ra,15434 <__addsf3>
   121b4:	59c040ef          	jal	ra,16750 <__floatunsisf>
   121b8:	33b175b7          	lui	a1,0x33b17
   121bc:	21858a13          	addi	s4,a1,536 # 33b17218 <__BSS_END__+0x33ad50b4>
   121c0:	000a0593          	mv	a1,s4
   121c4:	3c1030ef          	jal	ra,15d84 <__mulsf3>
   121c8:	c2b005b7          	lui	a1,0xc2b00
   121cc:	add58493          	addi	s1,a1,-1315 # c2affadd <__BSS_END__+0xc2abd979>
   121d0:	00048593          	mv	a1,s1
   121d4:	260030ef          	jal	ra,15434 <__addsf3>
   121d8:	00050413          	mv	s0,a0
   121dc:	574040ef          	jal	ra,16750 <__floatunsisf>
   121e0:	000a0593          	mv	a1,s4
   121e4:	3a1030ef          	jal	ra,15d84 <__mulsf3>
   121e8:	00048593          	mv	a1,s1
   121ec:	248030ef          	jal	ra,15434 <__addsf3>
   121f0:	00050493          	mv	s1,a0
   121f4:	00098513          	mv	a0,s3
   121f8:	00040593          	mv	a1,s0
   121fc:	238030ef          	jal	ra,15434 <__addsf3>
   12200:	00048593          	mv	a1,s1
   12204:	6f9030ef          	jal	ra,160fc <__subsf3>
   12208:	00050993          	mv	s3,a0
   1220c:	00048513          	mv	a0,s1
   12210:	00040593          	mv	a1,s0
   12214:	674030ef          	jal	ra,15888 <__divsf3>
   12218:	00050593          	mv	a1,a0
   1221c:	00098513          	mv	a0,s3
   12220:	214030ef          	jal	ra,15434 <__addsf3>
   12224:	00050993          	mv	s3,a0
   12228:	bfb8b537          	lui	a0,0xbfb8b
   1222c:	a3b50593          	addi	a1,a0,-1477 # bfb8aa3b <__BSS_END__+0xbfb488d7>
   12230:	00098513          	mv	a0,s3
   12234:	351030ef          	jal	ra,15d84 <__mulsf3>
   12238:	00050413          	mv	s0,a0
   1223c:	c2fc05b7          	lui	a1,0xc2fc0
   12240:	c2fc04b7          	lui	s1,0xc2fc0
   12244:	289030ef          	jal	ra,15ccc <__lesf2>
   12248:	00054463          	bltz	a0,12250 <fasterlambertw+0x114>
   1224c:	00040493          	mv	s1,s0
   12250:	42fde537          	lui	a0,0x42fde
   12254:	2a950593          	addi	a1,a0,681 # 42fde2a9 <__BSS_END__+0x42f9c145>
   12258:	00048513          	mv	a0,s1
   1225c:	1d8030ef          	jal	ra,15434 <__addsf3>
   12260:	4b0005b7          	lui	a1,0x4b000
   12264:	321030ef          	jal	ra,15d84 <__mulsf3>
   12268:	370040ef          	jal	ra,165d8 <__fixunssfsi>
   1226c:	00050413          	mv	s0,a0
   12270:	00098513          	mv	a0,s3
   12274:	00098593          	mv	a1,s3
   12278:	30d030ef          	jal	ra,15d84 <__mulsf3>
   1227c:	00050493          	mv	s1,a0
   12280:	00040513          	mv	a0,s0
   12284:	00090593          	mv	a1,s2
   12288:	2fd030ef          	jal	ra,15d84 <__mulsf3>
   1228c:	00050593          	mv	a1,a0
   12290:	00048513          	mv	a0,s1
   12294:	1a0030ef          	jal	ra,15434 <__addsf3>
   12298:	00050413          	mv	s0,a0
   1229c:	3f8005b7          	lui	a1,0x3f800
   122a0:	00098513          	mv	a0,s3
   122a4:	190030ef          	jal	ra,15434 <__addsf3>
   122a8:	00050593          	mv	a1,a0
   122ac:	00040513          	mv	a0,s0
   122b0:	5d8030ef          	jal	ra,15888 <__divsf3>
   122b4:	00812a03          	lw	s4,8(sp)
   122b8:	00c12983          	lw	s3,12(sp)
   122bc:	01012903          	lw	s2,16(sp)
   122c0:	01412483          	lw	s1,20(sp)
   122c4:	01812403          	lw	s0,24(sp)
   122c8:	01c12083          	lw	ra,28(sp)
   122cc:	02010113          	addi	sp,sp,32
   122d0:	00008067          	ret

000122d4 <fastlambertwexpx>:
   122d4:	fc010113          	addi	sp,sp,-64
   122d8:	02112e23          	sw	ra,60(sp)
   122dc:	02812c23          	sw	s0,56(sp)
   122e0:	02912a23          	sw	s1,52(sp)
   122e4:	03212823          	sw	s2,48(sp)
   122e8:	03312623          	sw	s3,44(sp)
   122ec:	03412423          	sw	s4,40(sp)
   122f0:	03512223          	sw	s5,36(sp)
   122f4:	03612023          	sw	s6,32(sp)
   122f8:	01712e23          	sw	s7,28(sp)
   122fc:	01812c23          	sw	s8,24(sp)
   12300:	01912a23          	sw	s9,20(sp)
   12304:	01a12823          	sw	s10,16(sp)
   12308:	01b12623          	sw	s11,12(sp)
   1230c:	00050913          	mv	s2,a0
   12310:	3f96a537          	lui	a0,0x3f96a
   12314:	99f50413          	addi	s0,a0,-1633 # 3f96999f <__BSS_END__+0x3f92783b>
   12318:	00090513          	mv	a0,s2
   1231c:	00040593          	mv	a1,s0
   12320:	7dc010ef          	jal	ra,13afc <fmaxf>
   12324:	00050c93          	mv	s9,a0
   12328:	00090513          	mv	a0,s2
   1232c:	00040593          	mv	a1,s0
   12330:	19d030ef          	jal	ra,15ccc <__lesf2>
   12334:	fff00593          	li	a1,-1
   12338:	02a5c463          	blt	a1,a0,12360 <fastlambertwexpx+0x8c>
   1233c:	bf96a537          	lui	a0,0xbf96a
   12340:	99f50593          	addi	a1,a0,-1633 # bf96999f <__BSS_END__+0xbf92783b>
   12344:	00090513          	mv	a0,s2
   12348:	0ec030ef          	jal	ra,15434 <__addsf3>
   1234c:	3f7205b7          	lui	a1,0x3f720
   12350:	42d58593          	addi	a1,a1,1069 # 3f72042d <__BSS_END__+0x3f6de2c9>
   12354:	231030ef          	jal	ra,15d84 <__mulsf3>
   12358:	00050c13          	mv	s8,a0
   1235c:	0080006f          	j	12364 <fastlambertwexpx+0x90>
   12360:	00000c13          	li	s8,0
   12364:	00800537          	lui	a0,0x800
   12368:	fff50d13          	addi	s10,a0,-1 # 7fffff <__BSS_END__+0x7bde9b>
   1236c:	01acf533          	and	a0,s9,s10
   12370:	3f000db7          	lui	s11,0x3f000
   12374:	01b56433          	or	s0,a0,s11
   12378:	000c8513          	mv	a0,s9
   1237c:	3d4040ef          	jal	ra,16750 <__floatunsisf>
   12380:	340005b7          	lui	a1,0x34000
   12384:	201030ef          	jal	ra,15d84 <__mulsf3>
   12388:	c2f875b7          	lui	a1,0xc2f87
   1238c:	37758993          	addi	s3,a1,887 # c2f87377 <__BSS_END__+0xc2f45213>
   12390:	00098593          	mv	a1,s3
   12394:	0a0030ef          	jal	ra,15434 <__addsf3>
   12398:	00050493          	mv	s1,a0
   1239c:	3fbfc537          	lui	a0,0x3fbfc
   123a0:	f7550a13          	addi	s4,a0,-139 # 3fbfbf75 <__BSS_END__+0x3fbb9e11>
   123a4:	00040513          	mv	a0,s0
   123a8:	000a0593          	mv	a1,s4
   123ac:	1d9030ef          	jal	ra,15d84 <__mulsf3>
   123b0:	00050593          	mv	a1,a0
   123b4:	00048513          	mv	a0,s1
   123b8:	545030ef          	jal	ra,160fc <__subsf3>
   123bc:	00050493          	mv	s1,a0
   123c0:	3eb44537          	lui	a0,0x3eb44
   123c4:	4f950a93          	addi	s5,a0,1273 # 3eb444f9 <__BSS_END__+0x3eb02395>
   123c8:	00040513          	mv	a0,s0
   123cc:	000a8593          	mv	a1,s5
   123d0:	064030ef          	jal	ra,15434 <__addsf3>
   123d4:	00050593          	mv	a1,a0
   123d8:	3fdcf537          	lui	a0,0x3fdcf
   123dc:	9a350b13          	addi	s6,a0,-1629 # 3fdce9a3 <__BSS_END__+0x3fd8c83f>
   123e0:	000b0513          	mv	a0,s6
   123e4:	4a4030ef          	jal	ra,15888 <__divsf3>
   123e8:	00050593          	mv	a1,a0
   123ec:	00048513          	mv	a0,s1
   123f0:	50d030ef          	jal	ra,160fc <__subsf3>
   123f4:	3f3175b7          	lui	a1,0x3f317
   123f8:	21858b93          	addi	s7,a1,536 # 3f317218 <__BSS_END__+0x3f2d50b4>
   123fc:	000b8593          	mv	a1,s7
   12400:	185030ef          	jal	ra,15d84 <__mulsf3>
   12404:	00050413          	mv	s0,a0
   12408:	c2fc05b7          	lui	a1,0xc2fc0
   1240c:	c2fc04b7          	lui	s1,0xc2fc0
   12410:	000c0513          	mv	a0,s8
   12414:	0b9030ef          	jal	ra,15ccc <__lesf2>
   12418:	00054463          	bltz	a0,12420 <fastlambertwexpx+0x14c>
   1241c:	000c0493          	mv	s1,s8
   12420:	42fde537          	lui	a0,0x42fde
   12424:	2a950593          	addi	a1,a0,681 # 42fde2a9 <__BSS_END__+0x42f9c145>
   12428:	00048513          	mv	a0,s1
   1242c:	008030ef          	jal	ra,15434 <__addsf3>
   12430:	4b0005b7          	lui	a1,0x4b000
   12434:	151030ef          	jal	ra,15d84 <__mulsf3>
   12438:	1a0040ef          	jal	ra,165d8 <__fixunssfsi>
   1243c:	00050c13          	mv	s8,a0
   12440:	000c8513          	mv	a0,s9
   12444:	00040593          	mv	a1,s0
   12448:	4b5030ef          	jal	ra,160fc <__subsf3>
   1244c:	00050493          	mv	s1,a0
   12450:	00040513          	mv	a0,s0
   12454:	000c8593          	mv	a1,s9
   12458:	430030ef          	jal	ra,15888 <__divsf3>
   1245c:	00048593          	mv	a1,s1
   12460:	7d5020ef          	jal	ra,15434 <__addsf3>
   12464:	000c0593          	mv	a1,s8
   12468:	11d030ef          	jal	ra,15d84 <__mulsf3>
   1246c:	00050493          	mv	s1,a0
   12470:	01a57533          	and	a0,a0,s10
   12474:	01b56c33          	or	s8,a0,s11
   12478:	00048513          	mv	a0,s1
   1247c:	2d4040ef          	jal	ra,16750 <__floatunsisf>
   12480:	340005b7          	lui	a1,0x34000
   12484:	101030ef          	jal	ra,15d84 <__mulsf3>
   12488:	00098593          	mv	a1,s3
   1248c:	7a9020ef          	jal	ra,15434 <__addsf3>
   12490:	00050413          	mv	s0,a0
   12494:	000c0513          	mv	a0,s8
   12498:	000a0593          	mv	a1,s4
   1249c:	0e9030ef          	jal	ra,15d84 <__mulsf3>
   124a0:	00050593          	mv	a1,a0
   124a4:	00040513          	mv	a0,s0
   124a8:	455030ef          	jal	ra,160fc <__subsf3>
   124ac:	00050413          	mv	s0,a0
   124b0:	000c0513          	mv	a0,s8
   124b4:	000a8593          	mv	a1,s5
   124b8:	77d020ef          	jal	ra,15434 <__addsf3>
   124bc:	00050593          	mv	a1,a0
   124c0:	000b0513          	mv	a0,s6
   124c4:	3c4030ef          	jal	ra,15888 <__divsf3>
   124c8:	00050593          	mv	a1,a0
   124cc:	00040513          	mv	a0,s0
   124d0:	42d030ef          	jal	ra,160fc <__subsf3>
   124d4:	000b8593          	mv	a1,s7
   124d8:	0ad030ef          	jal	ra,15d84 <__mulsf3>
   124dc:	00050593          	mv	a1,a0
   124e0:	00090513          	mv	a0,s2
   124e4:	419030ef          	jal	ra,160fc <__subsf3>
   124e8:	00050413          	mv	s0,a0
   124ec:	400005b7          	lui	a1,0x40000
   124f0:	745020ef          	jal	ra,15434 <__addsf3>
   124f4:	00050913          	mv	s2,a0
   124f8:	00040513          	mv	a0,s0
   124fc:	00040593          	mv	a1,s0
   12500:	735020ef          	jal	ra,15434 <__addsf3>
   12504:	404005b7          	lui	a1,0x40400
   12508:	72d020ef          	jal	ra,15434 <__addsf3>
   1250c:	00050593          	mv	a1,a0
   12510:	00048513          	mv	a0,s1
   12514:	071030ef          	jal	ra,15d84 <__mulsf3>
   12518:	00050593          	mv	a1,a0
   1251c:	00090513          	mv	a0,s2
   12520:	715020ef          	jal	ra,15434 <__addsf3>
   12524:	00050593          	mv	a1,a0
   12528:	00048513          	mv	a0,s1
   1252c:	059030ef          	jal	ra,15d84 <__mulsf3>
   12530:	00050913          	mv	s2,a0
   12534:	40000537          	lui	a0,0x40000
   12538:	00040593          	mv	a1,s0
   1253c:	3c1030ef          	jal	ra,160fc <__subsf3>
   12540:	00050413          	mv	s0,a0
   12544:	00048513          	mv	a0,s1
   12548:	00048593          	mv	a1,s1
   1254c:	6e9020ef          	jal	ra,15434 <__addsf3>
   12550:	40a005b7          	lui	a1,0x40a00
   12554:	6e1020ef          	jal	ra,15434 <__addsf3>
   12558:	00050593          	mv	a1,a0
   1255c:	00048513          	mv	a0,s1
   12560:	025030ef          	jal	ra,15d84 <__mulsf3>
   12564:	00040593          	mv	a1,s0
   12568:	6cd020ef          	jal	ra,15434 <__addsf3>
   1256c:	00050593          	mv	a1,a0
   12570:	00090513          	mv	a0,s2
   12574:	314030ef          	jal	ra,15888 <__divsf3>
   12578:	00c12d83          	lw	s11,12(sp)
   1257c:	01012d03          	lw	s10,16(sp)
   12580:	01412c83          	lw	s9,20(sp)
   12584:	01812c03          	lw	s8,24(sp)
   12588:	01c12b83          	lw	s7,28(sp)
   1258c:	02012b03          	lw	s6,32(sp)
   12590:	02412a83          	lw	s5,36(sp)
   12594:	02812a03          	lw	s4,40(sp)
   12598:	02c12983          	lw	s3,44(sp)
   1259c:	03012903          	lw	s2,48(sp)
   125a0:	03412483          	lw	s1,52(sp)
   125a4:	03812403          	lw	s0,56(sp)
   125a8:	03c12083          	lw	ra,60(sp)
   125ac:	04010113          	addi	sp,sp,64
   125b0:	00008067          	ret

000125b4 <fasterlambertwexpx>:
   125b4:	fe010113          	addi	sp,sp,-32
   125b8:	00112e23          	sw	ra,28(sp)
   125bc:	00812c23          	sw	s0,24(sp)
   125c0:	00912a23          	sw	s1,20(sp)
   125c4:	01212823          	sw	s2,16(sp)
   125c8:	01312623          	sw	s3,12(sp)
   125cc:	01412423          	sw	s4,8(sp)
   125d0:	01512223          	sw	s5,4(sp)
   125d4:	01612023          	sw	s6,0(sp)
   125d8:	00050913          	mv	s2,a0
   125dc:	3f96a537          	lui	a0,0x3f96a
   125e0:	99f50413          	addi	s0,a0,-1633 # 3f96999f <__BSS_END__+0x3f92783b>
   125e4:	00090513          	mv	a0,s2
   125e8:	00040593          	mv	a1,s0
   125ec:	510010ef          	jal	ra,13afc <fmaxf>
   125f0:	00050a93          	mv	s5,a0
   125f4:	00090513          	mv	a0,s2
   125f8:	00040593          	mv	a1,s0
   125fc:	6d0030ef          	jal	ra,15ccc <__lesf2>
   12600:	fff00593          	li	a1,-1
   12604:	02a5c463          	blt	a1,a0,1262c <fasterlambertwexpx+0x78>
   12608:	bf96a537          	lui	a0,0xbf96a
   1260c:	99f50593          	addi	a1,a0,-1633 # bf96999f <__BSS_END__+0xbf92783b>
   12610:	00090513          	mv	a0,s2
   12614:	621020ef          	jal	ra,15434 <__addsf3>
   12618:	3f7205b7          	lui	a1,0x3f720
   1261c:	42d58593          	addi	a1,a1,1069 # 3f72042d <__BSS_END__+0x3f6de2c9>
   12620:	764030ef          	jal	ra,15d84 <__mulsf3>
   12624:	00050b13          	mv	s6,a0
   12628:	0080006f          	j	12630 <fasterlambertwexpx+0x7c>
   1262c:	00000b13          	li	s6,0
   12630:	000a8513          	mv	a0,s5
   12634:	11c040ef          	jal	ra,16750 <__floatunsisf>
   12638:	33b175b7          	lui	a1,0x33b17
   1263c:	21858993          	addi	s3,a1,536 # 33b17218 <__BSS_END__+0x33ad50b4>
   12640:	00098593          	mv	a1,s3
   12644:	740030ef          	jal	ra,15d84 <__mulsf3>
   12648:	c2b005b7          	lui	a1,0xc2b00
   1264c:	add58a13          	addi	s4,a1,-1315 # c2affadd <__BSS_END__+0xc2abd979>
   12650:	000a0593          	mv	a1,s4
   12654:	5e1020ef          	jal	ra,15434 <__addsf3>
   12658:	00050413          	mv	s0,a0
   1265c:	c2fc05b7          	lui	a1,0xc2fc0
   12660:	c2fc04b7          	lui	s1,0xc2fc0
   12664:	000b0513          	mv	a0,s6
   12668:	664030ef          	jal	ra,15ccc <__lesf2>
   1266c:	00054463          	bltz	a0,12674 <fasterlambertwexpx+0xc0>
   12670:	000b0493          	mv	s1,s6
   12674:	42fde537          	lui	a0,0x42fde
   12678:	2a950593          	addi	a1,a0,681 # 42fde2a9 <__BSS_END__+0x42f9c145>
   1267c:	00048513          	mv	a0,s1
   12680:	5b5020ef          	jal	ra,15434 <__addsf3>
   12684:	4b0005b7          	lui	a1,0x4b000
   12688:	6fc030ef          	jal	ra,15d84 <__mulsf3>
   1268c:	74d030ef          	jal	ra,165d8 <__fixunssfsi>
   12690:	00050b13          	mv	s6,a0
   12694:	000a8513          	mv	a0,s5
   12698:	00040593          	mv	a1,s0
   1269c:	261030ef          	jal	ra,160fc <__subsf3>
   126a0:	00050493          	mv	s1,a0
   126a4:	00040513          	mv	a0,s0
   126a8:	000a8593          	mv	a1,s5
   126ac:	1dc030ef          	jal	ra,15888 <__divsf3>
   126b0:	00050593          	mv	a1,a0
   126b4:	00048513          	mv	a0,s1
   126b8:	57d020ef          	jal	ra,15434 <__addsf3>
   126bc:	000b0593          	mv	a1,s6
   126c0:	6c4030ef          	jal	ra,15d84 <__mulsf3>
   126c4:	00050413          	mv	s0,a0
   126c8:	088040ef          	jal	ra,16750 <__floatunsisf>
   126cc:	00098593          	mv	a1,s3
   126d0:	6b4030ef          	jal	ra,15d84 <__mulsf3>
   126d4:	000a0593          	mv	a1,s4
   126d8:	55d020ef          	jal	ra,15434 <__addsf3>
   126dc:	00050493          	mv	s1,a0
   126e0:	3f8005b7          	lui	a1,0x3f800
   126e4:	00090513          	mv	a0,s2
   126e8:	54d020ef          	jal	ra,15434 <__addsf3>
   126ec:	00048593          	mv	a1,s1
   126f0:	20d030ef          	jal	ra,160fc <__subsf3>
   126f4:	00050593          	mv	a1,a0
   126f8:	00040513          	mv	a0,s0
   126fc:	688030ef          	jal	ra,15d84 <__mulsf3>
   12700:	00050493          	mv	s1,a0
   12704:	3f8005b7          	lui	a1,0x3f800
   12708:	00040513          	mv	a0,s0
   1270c:	529020ef          	jal	ra,15434 <__addsf3>
   12710:	00050593          	mv	a1,a0
   12714:	00048513          	mv	a0,s1
   12718:	170030ef          	jal	ra,15888 <__divsf3>
   1271c:	00012b03          	lw	s6,0(sp)
   12720:	00412a83          	lw	s5,4(sp)
   12724:	00812a03          	lw	s4,8(sp)
   12728:	00c12983          	lw	s3,12(sp)
   1272c:	01012903          	lw	s2,16(sp)
   12730:	01412483          	lw	s1,20(sp)
   12734:	01812403          	lw	s0,24(sp)
   12738:	01c12083          	lw	ra,28(sp)
   1273c:	02010113          	addi	sp,sp,32
   12740:	00008067          	ret

00012744 <fastpow>:
   12744:	ff010113          	addi	sp,sp,-16
   12748:	00112623          	sw	ra,12(sp)
   1274c:	00812423          	sw	s0,8(sp)
   12750:	00912223          	sw	s1,4(sp)
   12754:	01212023          	sw	s2,0(sp)
   12758:	00058913          	mv	s2,a1
   1275c:	008005b7          	lui	a1,0x800
   12760:	fff58593          	addi	a1,a1,-1 # 7fffff <__BSS_END__+0x7bde9b>
   12764:	00b575b3          	and	a1,a0,a1
   12768:	3f000637          	lui	a2,0x3f000
   1276c:	00c5e4b3          	or	s1,a1,a2
   12770:	7e1030ef          	jal	ra,16750 <__floatunsisf>
   12774:	340005b7          	lui	a1,0x34000
   12778:	60c030ef          	jal	ra,15d84 <__mulsf3>
   1277c:	c2f875b7          	lui	a1,0xc2f87
   12780:	37758593          	addi	a1,a1,887 # c2f87377 <__BSS_END__+0xc2f45213>
   12784:	4b1020ef          	jal	ra,15434 <__addsf3>
   12788:	00050413          	mv	s0,a0
   1278c:	bfbfc537          	lui	a0,0xbfbfc
   12790:	f7550593          	addi	a1,a0,-139 # bfbfbf75 <__BSS_END__+0xbfbb9e11>
   12794:	00048513          	mv	a0,s1
   12798:	5ec030ef          	jal	ra,15d84 <__mulsf3>
   1279c:	00050593          	mv	a1,a0
   127a0:	00040513          	mv	a0,s0
   127a4:	491020ef          	jal	ra,15434 <__addsf3>
   127a8:	00050413          	mv	s0,a0
   127ac:	3eb44537          	lui	a0,0x3eb44
   127b0:	4f950593          	addi	a1,a0,1273 # 3eb444f9 <__BSS_END__+0x3eb02395>
   127b4:	00048513          	mv	a0,s1
   127b8:	47d020ef          	jal	ra,15434 <__addsf3>
   127bc:	00050593          	mv	a1,a0
   127c0:	bfdcf537          	lui	a0,0xbfdcf
   127c4:	9a350513          	addi	a0,a0,-1629 # bfdce9a3 <__BSS_END__+0xbfd8c83f>
   127c8:	0c0030ef          	jal	ra,15888 <__divsf3>
   127cc:	00050593          	mv	a1,a0
   127d0:	00040513          	mv	a0,s0
   127d4:	461020ef          	jal	ra,15434 <__addsf3>
   127d8:	00090593          	mv	a1,s2
   127dc:	5a8030ef          	jal	ra,15d84 <__mulsf3>
   127e0:	00050493          	mv	s1,a0
   127e4:	00000593          	li	a1,0
   127e8:	4e4030ef          	jal	ra,15ccc <__lesf2>
   127ec:	41f55513          	srai	a0,a0,0x1f
   127f0:	3f8005b7          	lui	a1,0x3f800
   127f4:	00b57933          	and	s2,a0,a1
   127f8:	c2fc05b7          	lui	a1,0xc2fc0
   127fc:	c2fc0437          	lui	s0,0xc2fc0
   12800:	00048513          	mv	a0,s1
   12804:	4c8030ef          	jal	ra,15ccc <__lesf2>
   12808:	00054463          	bltz	a0,12810 <fastpow+0xcc>
   1280c:	00048413          	mv	s0,s1
   12810:	00040513          	mv	a0,s0
   12814:	555030ef          	jal	ra,16568 <__fixsfsi>
   12818:	625030ef          	jal	ra,1663c <__floatsisf>
   1281c:	00050593          	mv	a1,a0
   12820:	00040513          	mv	a0,s0
   12824:	0d9030ef          	jal	ra,160fc <__subsf3>
   12828:	00050593          	mv	a1,a0
   1282c:	00090513          	mv	a0,s2
   12830:	405020ef          	jal	ra,15434 <__addsf3>
   12834:	00050493          	mv	s1,a0
   12838:	42f29537          	lui	a0,0x42f29
   1283c:	c5150593          	addi	a1,a0,-943 # 42f28c51 <__BSS_END__+0x42ee6aed>
   12840:	00040513          	mv	a0,s0
   12844:	3f1020ef          	jal	ra,15434 <__addsf3>
   12848:	00050413          	mv	s0,a0
   1284c:	409af537          	lui	a0,0x409af
   12850:	5f850513          	addi	a0,a0,1528 # 409af5f8 <__BSS_END__+0x4096d494>
   12854:	00048593          	mv	a1,s1
   12858:	0a5030ef          	jal	ra,160fc <__subsf3>
   1285c:	00050593          	mv	a1,a0
   12860:	41ddd537          	lui	a0,0x41ddd
   12864:	2fe50513          	addi	a0,a0,766 # 41ddd2fe <__BSS_END__+0x41d9b19a>
   12868:	020030ef          	jal	ra,15888 <__divsf3>
   1286c:	00040593          	mv	a1,s0
   12870:	3c5020ef          	jal	ra,15434 <__addsf3>
   12874:	00050413          	mv	s0,a0
   12878:	bfbec537          	lui	a0,0xbfbec
   1287c:	c8d50593          	addi	a1,a0,-883 # bfbebc8d <__BSS_END__+0xbfba9b29>
   12880:	00048513          	mv	a0,s1
   12884:	500030ef          	jal	ra,15d84 <__mulsf3>
   12888:	00050593          	mv	a1,a0
   1288c:	00040513          	mv	a0,s0
   12890:	3a5020ef          	jal	ra,15434 <__addsf3>
   12894:	4b0005b7          	lui	a1,0x4b000
   12898:	4ec030ef          	jal	ra,15d84 <__mulsf3>
   1289c:	53d030ef          	jal	ra,165d8 <__fixunssfsi>
   128a0:	00012903          	lw	s2,0(sp)
   128a4:	00412483          	lw	s1,4(sp)
   128a8:	00812403          	lw	s0,8(sp)
   128ac:	00c12083          	lw	ra,12(sp)
   128b0:	01010113          	addi	sp,sp,16
   128b4:	00008067          	ret

000128b8 <fasterpow>:
   128b8:	ff010113          	addi	sp,sp,-16
   128bc:	00112623          	sw	ra,12(sp)
   128c0:	00812423          	sw	s0,8(sp)
   128c4:	00912223          	sw	s1,4(sp)
   128c8:	00058413          	mv	s0,a1
   128cc:	685030ef          	jal	ra,16750 <__floatunsisf>
   128d0:	340005b7          	lui	a1,0x34000
   128d4:	4b0030ef          	jal	ra,15d84 <__mulsf3>
   128d8:	c2fde5b7          	lui	a1,0xc2fde
   128dc:	2a958593          	addi	a1,a1,681 # c2fde2a9 <__BSS_END__+0xc2f9c145>
   128e0:	355020ef          	jal	ra,15434 <__addsf3>
   128e4:	00040593          	mv	a1,s0
   128e8:	49c030ef          	jal	ra,15d84 <__mulsf3>
   128ec:	00050493          	mv	s1,a0
   128f0:	c2fc05b7          	lui	a1,0xc2fc0
   128f4:	c2fc0437          	lui	s0,0xc2fc0
   128f8:	3d4030ef          	jal	ra,15ccc <__lesf2>
   128fc:	00054463          	bltz	a0,12904 <fasterpow+0x4c>
   12900:	00048413          	mv	s0,s1
   12904:	42fde537          	lui	a0,0x42fde
   12908:	2a950593          	addi	a1,a0,681 # 42fde2a9 <__BSS_END__+0x42f9c145>
   1290c:	00040513          	mv	a0,s0
   12910:	325020ef          	jal	ra,15434 <__addsf3>
   12914:	4b0005b7          	lui	a1,0x4b000
   12918:	46c030ef          	jal	ra,15d84 <__mulsf3>
   1291c:	4bd030ef          	jal	ra,165d8 <__fixunssfsi>
   12920:	00412483          	lw	s1,4(sp)
   12924:	00812403          	lw	s0,8(sp)
   12928:	00c12083          	lw	ra,12(sp)
   1292c:	01010113          	addi	sp,sp,16
   12930:	00008067          	ret

00012934 <fastsigmoid>:
   12934:	ff010113          	addi	sp,sp,-16
   12938:	00112623          	sw	ra,12(sp)
   1293c:	00812423          	sw	s0,8(sp)
   12940:	00912223          	sw	s1,4(sp)
   12944:	01212023          	sw	s2,0(sp)
   12948:	bfb8b5b7          	lui	a1,0xbfb8b
   1294c:	a3b58593          	addi	a1,a1,-1477 # bfb8aa3b <__BSS_END__+0xbfb488d7>
   12950:	434030ef          	jal	ra,15d84 <__mulsf3>
   12954:	00050493          	mv	s1,a0
   12958:	00000593          	li	a1,0
   1295c:	370030ef          	jal	ra,15ccc <__lesf2>
   12960:	41f55513          	srai	a0,a0,0x1f
   12964:	3f8005b7          	lui	a1,0x3f800
   12968:	00b57933          	and	s2,a0,a1
   1296c:	c2fc05b7          	lui	a1,0xc2fc0
   12970:	c2fc0437          	lui	s0,0xc2fc0
   12974:	00048513          	mv	a0,s1
   12978:	354030ef          	jal	ra,15ccc <__lesf2>
   1297c:	00054463          	bltz	a0,12984 <fastsigmoid+0x50>
   12980:	00048413          	mv	s0,s1
   12984:	00040513          	mv	a0,s0
   12988:	3e1030ef          	jal	ra,16568 <__fixsfsi>
   1298c:	4b1030ef          	jal	ra,1663c <__floatsisf>
   12990:	00050593          	mv	a1,a0
   12994:	00040513          	mv	a0,s0
   12998:	764030ef          	jal	ra,160fc <__subsf3>
   1299c:	00050593          	mv	a1,a0
   129a0:	00090513          	mv	a0,s2
   129a4:	291020ef          	jal	ra,15434 <__addsf3>
   129a8:	00050493          	mv	s1,a0
   129ac:	42f29537          	lui	a0,0x42f29
   129b0:	c5150593          	addi	a1,a0,-943 # 42f28c51 <__BSS_END__+0x42ee6aed>
   129b4:	00040513          	mv	a0,s0
   129b8:	27d020ef          	jal	ra,15434 <__addsf3>
   129bc:	00050413          	mv	s0,a0
   129c0:	409af537          	lui	a0,0x409af
   129c4:	5f850513          	addi	a0,a0,1528 # 409af5f8 <__BSS_END__+0x4096d494>
   129c8:	00048593          	mv	a1,s1
   129cc:	730030ef          	jal	ra,160fc <__subsf3>
   129d0:	00050593          	mv	a1,a0
   129d4:	41ddd537          	lui	a0,0x41ddd
   129d8:	2fe50513          	addi	a0,a0,766 # 41ddd2fe <__BSS_END__+0x41d9b19a>
   129dc:	6ad020ef          	jal	ra,15888 <__divsf3>
   129e0:	00050593          	mv	a1,a0
   129e4:	00040513          	mv	a0,s0
   129e8:	24d020ef          	jal	ra,15434 <__addsf3>
   129ec:	00050413          	mv	s0,a0
   129f0:	bfbec537          	lui	a0,0xbfbec
   129f4:	c8d50593          	addi	a1,a0,-883 # bfbebc8d <__BSS_END__+0xbfba9b29>
   129f8:	00048513          	mv	a0,s1
   129fc:	388030ef          	jal	ra,15d84 <__mulsf3>
   12a00:	00050593          	mv	a1,a0
   12a04:	00040513          	mv	a0,s0
   12a08:	22d020ef          	jal	ra,15434 <__addsf3>
   12a0c:	4b0005b7          	lui	a1,0x4b000
   12a10:	374030ef          	jal	ra,15d84 <__mulsf3>
   12a14:	3c5030ef          	jal	ra,165d8 <__fixunssfsi>
   12a18:	3f8005b7          	lui	a1,0x3f800
   12a1c:	219020ef          	jal	ra,15434 <__addsf3>
   12a20:	00050593          	mv	a1,a0
   12a24:	3f800537          	lui	a0,0x3f800
   12a28:	661020ef          	jal	ra,15888 <__divsf3>
   12a2c:	00012903          	lw	s2,0(sp)
   12a30:	00412483          	lw	s1,4(sp)
   12a34:	00812403          	lw	s0,8(sp)
   12a38:	00c12083          	lw	ra,12(sp)
   12a3c:	01010113          	addi	sp,sp,16
   12a40:	00008067          	ret

00012a44 <fastersigmoid>:
   12a44:	ff010113          	addi	sp,sp,-16
   12a48:	00112623          	sw	ra,12(sp)
   12a4c:	00812423          	sw	s0,8(sp)
   12a50:	00912223          	sw	s1,4(sp)
   12a54:	bfb8b5b7          	lui	a1,0xbfb8b
   12a58:	a3b58593          	addi	a1,a1,-1477 # bfb8aa3b <__BSS_END__+0xbfb488d7>
   12a5c:	328030ef          	jal	ra,15d84 <__mulsf3>
   12a60:	00050493          	mv	s1,a0
   12a64:	c2fc05b7          	lui	a1,0xc2fc0
   12a68:	c2fc0437          	lui	s0,0xc2fc0
   12a6c:	260030ef          	jal	ra,15ccc <__lesf2>
   12a70:	00054463          	bltz	a0,12a78 <fastersigmoid+0x34>
   12a74:	00048413          	mv	s0,s1
   12a78:	42fde537          	lui	a0,0x42fde
   12a7c:	2a950593          	addi	a1,a0,681 # 42fde2a9 <__BSS_END__+0x42f9c145>
   12a80:	00040513          	mv	a0,s0
   12a84:	1b1020ef          	jal	ra,15434 <__addsf3>
   12a88:	4b0005b7          	lui	a1,0x4b000
   12a8c:	2f8030ef          	jal	ra,15d84 <__mulsf3>
   12a90:	349030ef          	jal	ra,165d8 <__fixunssfsi>
   12a94:	3f8005b7          	lui	a1,0x3f800
   12a98:	19d020ef          	jal	ra,15434 <__addsf3>
   12a9c:	00050593          	mv	a1,a0
   12aa0:	3f800537          	lui	a0,0x3f800
   12aa4:	5e5020ef          	jal	ra,15888 <__divsf3>
   12aa8:	00412483          	lw	s1,4(sp)
   12aac:	00812403          	lw	s0,8(sp)
   12ab0:	00c12083          	lw	ra,12(sp)
   12ab4:	01010113          	addi	sp,sp,16
   12ab8:	00008067          	ret

00012abc <fastsin>:
   12abc:	fe010113          	addi	sp,sp,-32
   12ac0:	00112e23          	sw	ra,28(sp)
   12ac4:	00812c23          	sw	s0,24(sp)
   12ac8:	00912a23          	sw	s1,20(sp)
   12acc:	01212823          	sw	s2,16(sp)
   12ad0:	01312623          	sw	s3,12(sp)
   12ad4:	01412423          	sw	s4,8(sp)
   12ad8:	00050413          	mv	s0,a0
   12adc:	80000537          	lui	a0,0x80000
   12ae0:	00a47a33          	and	s4,s0,a0
   12ae4:	fff50513          	addi	a0,a0,-1 # 7fffffff <__BSS_END__+0x7ffbde9b>
   12ae8:	00a47933          	and	s2,s0,a0
   12aec:	3fa30537          	lui	a0,0x3fa30
   12af0:	98350593          	addi	a1,a0,-1661 # 3fa2f983 <__BSS_END__+0x3f9ed81f>
   12af4:	00040513          	mv	a0,s0
   12af8:	28c030ef          	jal	ra,15d84 <__mulsf3>
   12afc:	00050493          	mv	s1,a0
   12b00:	becf8537          	lui	a0,0xbecf8
   12b04:	17b50593          	addi	a1,a0,379 # becf817b <__BSS_END__+0xbecb6017>
   12b08:	00040513          	mv	a0,s0
   12b0c:	278030ef          	jal	ra,15d84 <__mulsf3>
   12b10:	00090593          	mv	a1,s2
   12b14:	270030ef          	jal	ra,15d84 <__mulsf3>
   12b18:	00050593          	mv	a1,a0
   12b1c:	00048513          	mv	a0,s1
   12b20:	115020ef          	jal	ra,15434 <__addsf3>
   12b24:	00050413          	mv	s0,a0
   12b28:	00050593          	mv	a1,a0
   12b2c:	258030ef          	jal	ra,15d84 <__mulsf3>
   12b30:	00050493          	mv	s1,a0
   12b34:	3e508537          	lui	a0,0x3e508
   12b38:	6d750513          	addi	a0,a0,1751 # 3e5086d7 <__BSS_END__+0x3e4c6573>
   12b3c:	00aa6933          	or	s2,s4,a0
   12b40:	3c77d537          	lui	a0,0x3c77d
   12b44:	e9a50513          	addi	a0,a0,-358 # 3c77ce9a <__BSS_END__+0x3c73ad36>
   12b48:	00aa69b3          	or	s3,s4,a0
   12b4c:	bb533537          	lui	a0,0xbb533
   12b50:	21750513          	addi	a0,a0,535 # bb533217 <__BSS_END__+0xbb4f10b3>
   12b54:	00aa4a33          	xor	s4,s4,a0
   12b58:	3f48d537          	lui	a0,0x3f48d
   12b5c:	16150593          	addi	a1,a0,353 # 3f48d161 <__BSS_END__+0x3f44affd>
   12b60:	00040513          	mv	a0,s0
   12b64:	220030ef          	jal	ra,15d84 <__mulsf3>
   12b68:	00050413          	mv	s0,a0
   12b6c:	000a0513          	mv	a0,s4
   12b70:	00048593          	mv	a1,s1
   12b74:	210030ef          	jal	ra,15d84 <__mulsf3>
   12b78:	00050593          	mv	a1,a0
   12b7c:	00098513          	mv	a0,s3
   12b80:	0b5020ef          	jal	ra,15434 <__addsf3>
   12b84:	00050593          	mv	a1,a0
   12b88:	00048513          	mv	a0,s1
   12b8c:	1f8030ef          	jal	ra,15d84 <__mulsf3>
   12b90:	00050593          	mv	a1,a0
   12b94:	00090513          	mv	a0,s2
   12b98:	09d020ef          	jal	ra,15434 <__addsf3>
   12b9c:	00050593          	mv	a1,a0
   12ba0:	00048513          	mv	a0,s1
   12ba4:	1e0030ef          	jal	ra,15d84 <__mulsf3>
   12ba8:	00050593          	mv	a1,a0
   12bac:	00040513          	mv	a0,s0
   12bb0:	085020ef          	jal	ra,15434 <__addsf3>
   12bb4:	00812a03          	lw	s4,8(sp)
   12bb8:	00c12983          	lw	s3,12(sp)
   12bbc:	01012903          	lw	s2,16(sp)
   12bc0:	01412483          	lw	s1,20(sp)
   12bc4:	01812403          	lw	s0,24(sp)
   12bc8:	01c12083          	lw	ra,28(sp)
   12bcc:	02010113          	addi	sp,sp,32
   12bd0:	00008067          	ret

00012bd4 <fastersin>:
   12bd4:	fe010113          	addi	sp,sp,-32
   12bd8:	00112e23          	sw	ra,28(sp)
   12bdc:	00812c23          	sw	s0,24(sp)
   12be0:	00912a23          	sw	s1,20(sp)
   12be4:	01212823          	sw	s2,16(sp)
   12be8:	01312623          	sw	s3,12(sp)
   12bec:	00050413          	mv	s0,a0
   12bf0:	80000537          	lui	a0,0x80000
   12bf4:	00a479b3          	and	s3,s0,a0
   12bf8:	fff50513          	addi	a0,a0,-1 # 7fffffff <__BSS_END__+0x7ffbde9b>
   12bfc:	00a47933          	and	s2,s0,a0
   12c00:	3fa30537          	lui	a0,0x3fa30
   12c04:	98350593          	addi	a1,a0,-1661 # 3fa2f983 <__BSS_END__+0x3f9ed81f>
   12c08:	00040513          	mv	a0,s0
   12c0c:	178030ef          	jal	ra,15d84 <__mulsf3>
   12c10:	00050493          	mv	s1,a0
   12c14:	becf8537          	lui	a0,0xbecf8
   12c18:	17b50593          	addi	a1,a0,379 # becf817b <__BSS_END__+0xbecb6017>
   12c1c:	00040513          	mv	a0,s0
   12c20:	164030ef          	jal	ra,15d84 <__mulsf3>
   12c24:	00090593          	mv	a1,s2
   12c28:	15c030ef          	jal	ra,15d84 <__mulsf3>
   12c2c:	00050593          	mv	a1,a0
   12c30:	00048513          	mv	a0,s1
   12c34:	001020ef          	jal	ra,15434 <__addsf3>
   12c38:	00050413          	mv	s0,a0
   12c3c:	3e647537          	lui	a0,0x3e647
   12c40:	06c50513          	addi	a0,a0,108 # 3e64706c <__BSS_END__+0x3e604f08>
   12c44:	00a9e533          	or	a0,s3,a0
   12c48:	00040593          	mv	a1,s0
   12c4c:	138030ef          	jal	ra,15d84 <__mulsf3>
   12c50:	3f46c5b7          	lui	a1,0x3f46c
   12c54:	d9458593          	addi	a1,a1,-620 # 3f46bd94 <__BSS_END__+0x3f429c30>
   12c58:	7dc020ef          	jal	ra,15434 <__addsf3>
   12c5c:	00050593          	mv	a1,a0
   12c60:	00040513          	mv	a0,s0
   12c64:	120030ef          	jal	ra,15d84 <__mulsf3>
   12c68:	00c12983          	lw	s3,12(sp)
   12c6c:	01012903          	lw	s2,16(sp)
   12c70:	01412483          	lw	s1,20(sp)
   12c74:	01812403          	lw	s0,24(sp)
   12c78:	01c12083          	lw	ra,28(sp)
   12c7c:	02010113          	addi	sp,sp,32
   12c80:	00008067          	ret

00012c84 <fastsinfull>:
   12c84:	fe010113          	addi	sp,sp,-32
   12c88:	00112e23          	sw	ra,28(sp)
   12c8c:	00812c23          	sw	s0,24(sp)
   12c90:	00912a23          	sw	s1,20(sp)
   12c94:	01212823          	sw	s2,16(sp)
   12c98:	01312623          	sw	s3,12(sp)
   12c9c:	01412423          	sw	s4,8(sp)
   12ca0:	00050413          	mv	s0,a0
   12ca4:	3e230537          	lui	a0,0x3e230
   12ca8:	98350593          	addi	a1,a0,-1661 # 3e22f983 <__BSS_END__+0x3e1ed81f>
   12cac:	00040513          	mv	a0,s0
   12cb0:	0d4030ef          	jal	ra,15d84 <__mulsf3>
   12cb4:	0b5030ef          	jal	ra,16568 <__fixsfsi>
   12cb8:	00050913          	mv	s2,a0
   12cbc:	00040513          	mv	a0,s0
   12cc0:	00000593          	li	a1,0
   12cc4:	008030ef          	jal	ra,15ccc <__lesf2>
   12cc8:	bf0004b7          	lui	s1,0xbf000
   12ccc:	00054463          	bltz	a0,12cd4 <fastsinfull+0x50>
   12cd0:	3f0004b7          	lui	s1,0x3f000
   12cd4:	00090513          	mv	a0,s2
   12cd8:	165030ef          	jal	ra,1663c <__floatsisf>
   12cdc:	00050593          	mv	a1,a0
   12ce0:	00048513          	mv	a0,s1
   12ce4:	750020ef          	jal	ra,15434 <__addsf3>
   12ce8:	40c915b7          	lui	a1,0x40c91
   12cec:	fdb58593          	addi	a1,a1,-37 # 40c90fdb <__BSS_END__+0x40c4ee77>
   12cf0:	094030ef          	jal	ra,15d84 <__mulsf3>
   12cf4:	00040593          	mv	a1,s0
   12cf8:	404030ef          	jal	ra,160fc <__subsf3>
   12cfc:	00050413          	mv	s0,a0
   12d00:	80000537          	lui	a0,0x80000
   12d04:	00a47a33          	and	s4,s0,a0
   12d08:	fff50513          	addi	a0,a0,-1 # 7fffffff <__BSS_END__+0x7ffbde9b>
   12d0c:	00a47933          	and	s2,s0,a0
   12d10:	3fa30537          	lui	a0,0x3fa30
   12d14:	98350593          	addi	a1,a0,-1661 # 3fa2f983 <__BSS_END__+0x3f9ed81f>
   12d18:	00040513          	mv	a0,s0
   12d1c:	068030ef          	jal	ra,15d84 <__mulsf3>
   12d20:	00050493          	mv	s1,a0
   12d24:	becf8537          	lui	a0,0xbecf8
   12d28:	17b50593          	addi	a1,a0,379 # becf817b <__BSS_END__+0xbecb6017>
   12d2c:	00040513          	mv	a0,s0
   12d30:	054030ef          	jal	ra,15d84 <__mulsf3>
   12d34:	00090593          	mv	a1,s2
   12d38:	04c030ef          	jal	ra,15d84 <__mulsf3>
   12d3c:	00050593          	mv	a1,a0
   12d40:	00048513          	mv	a0,s1
   12d44:	6f0020ef          	jal	ra,15434 <__addsf3>
   12d48:	00050413          	mv	s0,a0
   12d4c:	00050593          	mv	a1,a0
   12d50:	034030ef          	jal	ra,15d84 <__mulsf3>
   12d54:	00050493          	mv	s1,a0
   12d58:	3e508537          	lui	a0,0x3e508
   12d5c:	6d750513          	addi	a0,a0,1751 # 3e5086d7 <__BSS_END__+0x3e4c6573>
   12d60:	00aa6933          	or	s2,s4,a0
   12d64:	3c77d537          	lui	a0,0x3c77d
   12d68:	e9a50513          	addi	a0,a0,-358 # 3c77ce9a <__BSS_END__+0x3c73ad36>
   12d6c:	00aa69b3          	or	s3,s4,a0
   12d70:	bb533537          	lui	a0,0xbb533
   12d74:	21750513          	addi	a0,a0,535 # bb533217 <__BSS_END__+0xbb4f10b3>
   12d78:	00aa4a33          	xor	s4,s4,a0
   12d7c:	3f48d537          	lui	a0,0x3f48d
   12d80:	16150593          	addi	a1,a0,353 # 3f48d161 <__BSS_END__+0x3f44affd>
   12d84:	00040513          	mv	a0,s0
   12d88:	7fd020ef          	jal	ra,15d84 <__mulsf3>
   12d8c:	00050413          	mv	s0,a0
   12d90:	000a0513          	mv	a0,s4
   12d94:	00048593          	mv	a1,s1
   12d98:	7ed020ef          	jal	ra,15d84 <__mulsf3>
   12d9c:	00050593          	mv	a1,a0
   12da0:	00098513          	mv	a0,s3
   12da4:	690020ef          	jal	ra,15434 <__addsf3>
   12da8:	00050593          	mv	a1,a0
   12dac:	00048513          	mv	a0,s1
   12db0:	7d5020ef          	jal	ra,15d84 <__mulsf3>
   12db4:	00050593          	mv	a1,a0
   12db8:	00090513          	mv	a0,s2
   12dbc:	678020ef          	jal	ra,15434 <__addsf3>
   12dc0:	00050593          	mv	a1,a0
   12dc4:	00048513          	mv	a0,s1
   12dc8:	7bd020ef          	jal	ra,15d84 <__mulsf3>
   12dcc:	00050593          	mv	a1,a0
   12dd0:	00040513          	mv	a0,s0
   12dd4:	660020ef          	jal	ra,15434 <__addsf3>
   12dd8:	00812a03          	lw	s4,8(sp)
   12ddc:	00c12983          	lw	s3,12(sp)
   12de0:	01012903          	lw	s2,16(sp)
   12de4:	01412483          	lw	s1,20(sp)
   12de8:	01812403          	lw	s0,24(sp)
   12dec:	01c12083          	lw	ra,28(sp)
   12df0:	02010113          	addi	sp,sp,32
   12df4:	00008067          	ret

00012df8 <fastersinfull>:
   12df8:	fe010113          	addi	sp,sp,-32
   12dfc:	00112e23          	sw	ra,28(sp)
   12e00:	00812c23          	sw	s0,24(sp)
   12e04:	00912a23          	sw	s1,20(sp)
   12e08:	01212823          	sw	s2,16(sp)
   12e0c:	01312623          	sw	s3,12(sp)
   12e10:	00050413          	mv	s0,a0
   12e14:	3e230537          	lui	a0,0x3e230
   12e18:	98350593          	addi	a1,a0,-1661 # 3e22f983 <__BSS_END__+0x3e1ed81f>
   12e1c:	00040513          	mv	a0,s0
   12e20:	765020ef          	jal	ra,15d84 <__mulsf3>
   12e24:	744030ef          	jal	ra,16568 <__fixsfsi>
   12e28:	00050913          	mv	s2,a0
   12e2c:	00040513          	mv	a0,s0
   12e30:	00000593          	li	a1,0
   12e34:	699020ef          	jal	ra,15ccc <__lesf2>
   12e38:	bf0004b7          	lui	s1,0xbf000
   12e3c:	00054463          	bltz	a0,12e44 <fastersinfull+0x4c>
   12e40:	3f0004b7          	lui	s1,0x3f000
   12e44:	00090513          	mv	a0,s2
   12e48:	7f4030ef          	jal	ra,1663c <__floatsisf>
   12e4c:	00050593          	mv	a1,a0
   12e50:	00048513          	mv	a0,s1
   12e54:	5e0020ef          	jal	ra,15434 <__addsf3>
   12e58:	40c915b7          	lui	a1,0x40c91
   12e5c:	fdb58593          	addi	a1,a1,-37 # 40c90fdb <__BSS_END__+0x40c4ee77>
   12e60:	725020ef          	jal	ra,15d84 <__mulsf3>
   12e64:	00040593          	mv	a1,s0
   12e68:	294030ef          	jal	ra,160fc <__subsf3>
   12e6c:	00050413          	mv	s0,a0
   12e70:	80000537          	lui	a0,0x80000
   12e74:	00a479b3          	and	s3,s0,a0
   12e78:	fff50513          	addi	a0,a0,-1 # 7fffffff <__BSS_END__+0x7ffbde9b>
   12e7c:	00a47933          	and	s2,s0,a0
   12e80:	3fa30537          	lui	a0,0x3fa30
   12e84:	98350593          	addi	a1,a0,-1661 # 3fa2f983 <__BSS_END__+0x3f9ed81f>
   12e88:	00040513          	mv	a0,s0
   12e8c:	6f9020ef          	jal	ra,15d84 <__mulsf3>
   12e90:	00050493          	mv	s1,a0
   12e94:	becf8537          	lui	a0,0xbecf8
   12e98:	17b50593          	addi	a1,a0,379 # becf817b <__BSS_END__+0xbecb6017>
   12e9c:	00040513          	mv	a0,s0
   12ea0:	6e5020ef          	jal	ra,15d84 <__mulsf3>
   12ea4:	00090593          	mv	a1,s2
   12ea8:	6dd020ef          	jal	ra,15d84 <__mulsf3>
   12eac:	00050593          	mv	a1,a0
   12eb0:	00048513          	mv	a0,s1
   12eb4:	580020ef          	jal	ra,15434 <__addsf3>
   12eb8:	00050413          	mv	s0,a0
   12ebc:	3e647537          	lui	a0,0x3e647
   12ec0:	06c50513          	addi	a0,a0,108 # 3e64706c <__BSS_END__+0x3e604f08>
   12ec4:	00a9e533          	or	a0,s3,a0
   12ec8:	00040593          	mv	a1,s0
   12ecc:	6b9020ef          	jal	ra,15d84 <__mulsf3>
   12ed0:	3f46c5b7          	lui	a1,0x3f46c
   12ed4:	d9458593          	addi	a1,a1,-620 # 3f46bd94 <__BSS_END__+0x3f429c30>
   12ed8:	55c020ef          	jal	ra,15434 <__addsf3>
   12edc:	00050593          	mv	a1,a0
   12ee0:	00040513          	mv	a0,s0
   12ee4:	6a1020ef          	jal	ra,15d84 <__mulsf3>
   12ee8:	00c12983          	lw	s3,12(sp)
   12eec:	01012903          	lw	s2,16(sp)
   12ef0:	01412483          	lw	s1,20(sp)
   12ef4:	01812403          	lw	s0,24(sp)
   12ef8:	01c12083          	lw	ra,28(sp)
   12efc:	02010113          	addi	sp,sp,32
   12f00:	00008067          	ret

00012f04 <fastcos>:
   12f04:	fe010113          	addi	sp,sp,-32
   12f08:	00112e23          	sw	ra,28(sp)
   12f0c:	00812c23          	sw	s0,24(sp)
   12f10:	00912a23          	sw	s1,20(sp)
   12f14:	01212823          	sw	s2,16(sp)
   12f18:	01312623          	sw	s3,12(sp)
   12f1c:	01412423          	sw	s4,8(sp)
   12f20:	00050413          	mv	s0,a0
   12f24:	3fc91537          	lui	a0,0x3fc91
   12f28:	fdb50493          	addi	s1,a0,-37 # 3fc90fdb <__BSS_END__+0x3fc4ee77>
   12f2c:	00040513          	mv	a0,s0
   12f30:	00048593          	mv	a1,s1
   12f34:	4e1020ef          	jal	ra,15c14 <__gesf2>
   12f38:	00a05663          	blez	a0,12f44 <fastcos+0x40>
   12f3c:	c096d537          	lui	a0,0xc096d
   12f40:	be450493          	addi	s1,a0,-1052 # c096cbe4 <__BSS_END__+0xc092aa80>
   12f44:	00048513          	mv	a0,s1
   12f48:	00040593          	mv	a1,s0
   12f4c:	4e8020ef          	jal	ra,15434 <__addsf3>
   12f50:	00050413          	mv	s0,a0
   12f54:	80000537          	lui	a0,0x80000
   12f58:	00a47a33          	and	s4,s0,a0
   12f5c:	fff50513          	addi	a0,a0,-1 # 7fffffff <__BSS_END__+0x7ffbde9b>
   12f60:	00a47933          	and	s2,s0,a0
   12f64:	3fa30537          	lui	a0,0x3fa30
   12f68:	98350593          	addi	a1,a0,-1661 # 3fa2f983 <__BSS_END__+0x3f9ed81f>
   12f6c:	00040513          	mv	a0,s0
   12f70:	615020ef          	jal	ra,15d84 <__mulsf3>
   12f74:	00050493          	mv	s1,a0
   12f78:	becf8537          	lui	a0,0xbecf8
   12f7c:	17b50593          	addi	a1,a0,379 # becf817b <__BSS_END__+0xbecb6017>
   12f80:	00040513          	mv	a0,s0
   12f84:	601020ef          	jal	ra,15d84 <__mulsf3>
   12f88:	00090593          	mv	a1,s2
   12f8c:	5f9020ef          	jal	ra,15d84 <__mulsf3>
   12f90:	00050593          	mv	a1,a0
   12f94:	00048513          	mv	a0,s1
   12f98:	49c020ef          	jal	ra,15434 <__addsf3>
   12f9c:	00050413          	mv	s0,a0
   12fa0:	00050593          	mv	a1,a0
   12fa4:	5e1020ef          	jal	ra,15d84 <__mulsf3>
   12fa8:	00050493          	mv	s1,a0
   12fac:	3e508537          	lui	a0,0x3e508
   12fb0:	6d750513          	addi	a0,a0,1751 # 3e5086d7 <__BSS_END__+0x3e4c6573>
   12fb4:	00aa6933          	or	s2,s4,a0
   12fb8:	3c77d537          	lui	a0,0x3c77d
   12fbc:	e9a50513          	addi	a0,a0,-358 # 3c77ce9a <__BSS_END__+0x3c73ad36>
   12fc0:	00aa69b3          	or	s3,s4,a0
   12fc4:	bb533537          	lui	a0,0xbb533
   12fc8:	21750513          	addi	a0,a0,535 # bb533217 <__BSS_END__+0xbb4f10b3>
   12fcc:	00aa4a33          	xor	s4,s4,a0
   12fd0:	3f48d537          	lui	a0,0x3f48d
   12fd4:	16150593          	addi	a1,a0,353 # 3f48d161 <__BSS_END__+0x3f44affd>
   12fd8:	00040513          	mv	a0,s0
   12fdc:	5a9020ef          	jal	ra,15d84 <__mulsf3>
   12fe0:	00050413          	mv	s0,a0
   12fe4:	000a0513          	mv	a0,s4
   12fe8:	00048593          	mv	a1,s1
   12fec:	599020ef          	jal	ra,15d84 <__mulsf3>
   12ff0:	00050593          	mv	a1,a0
   12ff4:	00098513          	mv	a0,s3
   12ff8:	43c020ef          	jal	ra,15434 <__addsf3>
   12ffc:	00050593          	mv	a1,a0
   13000:	00048513          	mv	a0,s1
   13004:	581020ef          	jal	ra,15d84 <__mulsf3>
   13008:	00050593          	mv	a1,a0
   1300c:	00090513          	mv	a0,s2
   13010:	424020ef          	jal	ra,15434 <__addsf3>
   13014:	00050593          	mv	a1,a0
   13018:	00048513          	mv	a0,s1
   1301c:	569020ef          	jal	ra,15d84 <__mulsf3>
   13020:	00050593          	mv	a1,a0
   13024:	00040513          	mv	a0,s0
   13028:	40c020ef          	jal	ra,15434 <__addsf3>
   1302c:	00812a03          	lw	s4,8(sp)
   13030:	00c12983          	lw	s3,12(sp)
   13034:	01012903          	lw	s2,16(sp)
   13038:	01412483          	lw	s1,20(sp)
   1303c:	01812403          	lw	s0,24(sp)
   13040:	01c12083          	lw	ra,28(sp)
   13044:	02010113          	addi	sp,sp,32
   13048:	00008067          	ret

0001304c <fastercos>:
   1304c:	ff010113          	addi	sp,sp,-16
   13050:	00112623          	sw	ra,12(sp)
   13054:	00812423          	sw	s0,8(sp)
   13058:	00912223          	sw	s1,4(sp)
   1305c:	800005b7          	lui	a1,0x80000
   13060:	fff58593          	addi	a1,a1,-1 # 7fffffff <__BSS_END__+0x7ffbde9b>
   13064:	00b57533          	and	a0,a0,a1
   13068:	bf2305b7          	lui	a1,0xbf230
   1306c:	98358593          	addi	a1,a1,-1661 # bf22f983 <__BSS_END__+0xbf1ed81f>
   13070:	515020ef          	jal	ra,15d84 <__mulsf3>
   13074:	3f8005b7          	lui	a1,0x3f800
   13078:	3bc020ef          	jal	ra,15434 <__addsf3>
   1307c:	00050413          	mv	s0,a0
   13080:	3f0be537          	lui	a0,0x3f0be
   13084:	1bf50593          	addi	a1,a0,447 # 3f0be1bf <__BSS_END__+0x3f07c05b>
   13088:	00040513          	mv	a0,s0
   1308c:	4f9020ef          	jal	ra,15d84 <__mulsf3>
   13090:	00050493          	mv	s1,a0
   13094:	00040513          	mv	a0,s0
   13098:	00040593          	mv	a1,s0
   1309c:	4e9020ef          	jal	ra,15d84 <__mulsf3>
   130a0:	00050593          	mv	a1,a0
   130a4:	3f800537          	lui	a0,0x3f800
   130a8:	054030ef          	jal	ra,160fc <__subsf3>
   130ac:	00050593          	mv	a1,a0
   130b0:	00048513          	mv	a0,s1
   130b4:	4d1020ef          	jal	ra,15d84 <__mulsf3>
   130b8:	00050593          	mv	a1,a0
   130bc:	00040513          	mv	a0,s0
   130c0:	374020ef          	jal	ra,15434 <__addsf3>
   130c4:	00412483          	lw	s1,4(sp)
   130c8:	00812403          	lw	s0,8(sp)
   130cc:	00c12083          	lw	ra,12(sp)
   130d0:	01010113          	addi	sp,sp,16
   130d4:	00008067          	ret

000130d8 <fastcosfull>:
   130d8:	fe010113          	addi	sp,sp,-32
   130dc:	00112e23          	sw	ra,28(sp)
   130e0:	00812c23          	sw	s0,24(sp)
   130e4:	00912a23          	sw	s1,20(sp)
   130e8:	01212823          	sw	s2,16(sp)
   130ec:	01312623          	sw	s3,12(sp)
   130f0:	01412423          	sw	s4,8(sp)
   130f4:	3fc915b7          	lui	a1,0x3fc91
   130f8:	fdb58593          	addi	a1,a1,-37 # 3fc90fdb <__BSS_END__+0x3fc4ee77>
   130fc:	338020ef          	jal	ra,15434 <__addsf3>
   13100:	00050413          	mv	s0,a0
   13104:	3e230537          	lui	a0,0x3e230
   13108:	98350593          	addi	a1,a0,-1661 # 3e22f983 <__BSS_END__+0x3e1ed81f>
   1310c:	00040513          	mv	a0,s0
   13110:	475020ef          	jal	ra,15d84 <__mulsf3>
   13114:	454030ef          	jal	ra,16568 <__fixsfsi>
   13118:	00050913          	mv	s2,a0
   1311c:	00040513          	mv	a0,s0
   13120:	00000593          	li	a1,0
   13124:	3a9020ef          	jal	ra,15ccc <__lesf2>
   13128:	bf0004b7          	lui	s1,0xbf000
   1312c:	00054463          	bltz	a0,13134 <fastcosfull+0x5c>
   13130:	3f0004b7          	lui	s1,0x3f000
   13134:	00090513          	mv	a0,s2
   13138:	504030ef          	jal	ra,1663c <__floatsisf>
   1313c:	00050593          	mv	a1,a0
   13140:	00048513          	mv	a0,s1
   13144:	2f0020ef          	jal	ra,15434 <__addsf3>
   13148:	40c915b7          	lui	a1,0x40c91
   1314c:	fdb58593          	addi	a1,a1,-37 # 40c90fdb <__BSS_END__+0x40c4ee77>
   13150:	435020ef          	jal	ra,15d84 <__mulsf3>
   13154:	00040593          	mv	a1,s0
   13158:	7a5020ef          	jal	ra,160fc <__subsf3>
   1315c:	00050413          	mv	s0,a0
   13160:	80000537          	lui	a0,0x80000
   13164:	00a47a33          	and	s4,s0,a0
   13168:	fff50513          	addi	a0,a0,-1 # 7fffffff <__BSS_END__+0x7ffbde9b>
   1316c:	00a47933          	and	s2,s0,a0
   13170:	3fa30537          	lui	a0,0x3fa30
   13174:	98350593          	addi	a1,a0,-1661 # 3fa2f983 <__BSS_END__+0x3f9ed81f>
   13178:	00040513          	mv	a0,s0
   1317c:	409020ef          	jal	ra,15d84 <__mulsf3>
   13180:	00050493          	mv	s1,a0
   13184:	becf8537          	lui	a0,0xbecf8
   13188:	17b50593          	addi	a1,a0,379 # becf817b <__BSS_END__+0xbecb6017>
   1318c:	00040513          	mv	a0,s0
   13190:	3f5020ef          	jal	ra,15d84 <__mulsf3>
   13194:	00090593          	mv	a1,s2
   13198:	3ed020ef          	jal	ra,15d84 <__mulsf3>
   1319c:	00050593          	mv	a1,a0
   131a0:	00048513          	mv	a0,s1
   131a4:	290020ef          	jal	ra,15434 <__addsf3>
   131a8:	00050413          	mv	s0,a0
   131ac:	00050593          	mv	a1,a0
   131b0:	3d5020ef          	jal	ra,15d84 <__mulsf3>
   131b4:	00050493          	mv	s1,a0
   131b8:	3e508537          	lui	a0,0x3e508
   131bc:	6d750513          	addi	a0,a0,1751 # 3e5086d7 <__BSS_END__+0x3e4c6573>
   131c0:	00aa6933          	or	s2,s4,a0
   131c4:	3c77d537          	lui	a0,0x3c77d
   131c8:	e9a50513          	addi	a0,a0,-358 # 3c77ce9a <__BSS_END__+0x3c73ad36>
   131cc:	00aa69b3          	or	s3,s4,a0
   131d0:	bb533537          	lui	a0,0xbb533
   131d4:	21750513          	addi	a0,a0,535 # bb533217 <__BSS_END__+0xbb4f10b3>
   131d8:	00aa4a33          	xor	s4,s4,a0
   131dc:	3f48d537          	lui	a0,0x3f48d
   131e0:	16150593          	addi	a1,a0,353 # 3f48d161 <__BSS_END__+0x3f44affd>
   131e4:	00040513          	mv	a0,s0
   131e8:	39d020ef          	jal	ra,15d84 <__mulsf3>
   131ec:	00050413          	mv	s0,a0
   131f0:	000a0513          	mv	a0,s4
   131f4:	00048593          	mv	a1,s1
   131f8:	38d020ef          	jal	ra,15d84 <__mulsf3>
   131fc:	00050593          	mv	a1,a0
   13200:	00098513          	mv	a0,s3
   13204:	230020ef          	jal	ra,15434 <__addsf3>
   13208:	00050593          	mv	a1,a0
   1320c:	00048513          	mv	a0,s1
   13210:	375020ef          	jal	ra,15d84 <__mulsf3>
   13214:	00050593          	mv	a1,a0
   13218:	00090513          	mv	a0,s2
   1321c:	218020ef          	jal	ra,15434 <__addsf3>
   13220:	00050593          	mv	a1,a0
   13224:	00048513          	mv	a0,s1
   13228:	35d020ef          	jal	ra,15d84 <__mulsf3>
   1322c:	00050593          	mv	a1,a0
   13230:	00040513          	mv	a0,s0
   13234:	200020ef          	jal	ra,15434 <__addsf3>
   13238:	00812a03          	lw	s4,8(sp)
   1323c:	00c12983          	lw	s3,12(sp)
   13240:	01012903          	lw	s2,16(sp)
   13244:	01412483          	lw	s1,20(sp)
   13248:	01812403          	lw	s0,24(sp)
   1324c:	01c12083          	lw	ra,28(sp)
   13250:	02010113          	addi	sp,sp,32
   13254:	00008067          	ret

00013258 <fastercosfull>:
   13258:	fe010113          	addi	sp,sp,-32
   1325c:	00112e23          	sw	ra,28(sp)
   13260:	00812c23          	sw	s0,24(sp)
   13264:	00912a23          	sw	s1,20(sp)
   13268:	01212823          	sw	s2,16(sp)
   1326c:	01312623          	sw	s3,12(sp)
   13270:	3fc915b7          	lui	a1,0x3fc91
   13274:	fdb58593          	addi	a1,a1,-37 # 3fc90fdb <__BSS_END__+0x3fc4ee77>
   13278:	1bc020ef          	jal	ra,15434 <__addsf3>
   1327c:	00050413          	mv	s0,a0
   13280:	3e230537          	lui	a0,0x3e230
   13284:	98350593          	addi	a1,a0,-1661 # 3e22f983 <__BSS_END__+0x3e1ed81f>
   13288:	00040513          	mv	a0,s0
   1328c:	2f9020ef          	jal	ra,15d84 <__mulsf3>
   13290:	2d8030ef          	jal	ra,16568 <__fixsfsi>
   13294:	00050913          	mv	s2,a0
   13298:	00040513          	mv	a0,s0
   1329c:	00000593          	li	a1,0
   132a0:	22d020ef          	jal	ra,15ccc <__lesf2>
   132a4:	bf0004b7          	lui	s1,0xbf000
   132a8:	00054463          	bltz	a0,132b0 <fastercosfull+0x58>
   132ac:	3f0004b7          	lui	s1,0x3f000
   132b0:	00090513          	mv	a0,s2
   132b4:	388030ef          	jal	ra,1663c <__floatsisf>
   132b8:	00050593          	mv	a1,a0
   132bc:	00048513          	mv	a0,s1
   132c0:	174020ef          	jal	ra,15434 <__addsf3>
   132c4:	40c915b7          	lui	a1,0x40c91
   132c8:	fdb58593          	addi	a1,a1,-37 # 40c90fdb <__BSS_END__+0x40c4ee77>
   132cc:	2b9020ef          	jal	ra,15d84 <__mulsf3>
   132d0:	00040593          	mv	a1,s0
   132d4:	629020ef          	jal	ra,160fc <__subsf3>
   132d8:	00050413          	mv	s0,a0
   132dc:	80000537          	lui	a0,0x80000
   132e0:	00a479b3          	and	s3,s0,a0
   132e4:	fff50513          	addi	a0,a0,-1 # 7fffffff <__BSS_END__+0x7ffbde9b>
   132e8:	00a47933          	and	s2,s0,a0
   132ec:	3fa30537          	lui	a0,0x3fa30
   132f0:	98350593          	addi	a1,a0,-1661 # 3fa2f983 <__BSS_END__+0x3f9ed81f>
   132f4:	00040513          	mv	a0,s0
   132f8:	28d020ef          	jal	ra,15d84 <__mulsf3>
   132fc:	00050493          	mv	s1,a0
   13300:	becf8537          	lui	a0,0xbecf8
   13304:	17b50593          	addi	a1,a0,379 # becf817b <__BSS_END__+0xbecb6017>
   13308:	00040513          	mv	a0,s0
   1330c:	279020ef          	jal	ra,15d84 <__mulsf3>
   13310:	00090593          	mv	a1,s2
   13314:	271020ef          	jal	ra,15d84 <__mulsf3>
   13318:	00050593          	mv	a1,a0
   1331c:	00048513          	mv	a0,s1
   13320:	114020ef          	jal	ra,15434 <__addsf3>
   13324:	00050413          	mv	s0,a0
   13328:	3e647537          	lui	a0,0x3e647
   1332c:	06c50513          	addi	a0,a0,108 # 3e64706c <__BSS_END__+0x3e604f08>
   13330:	00a9e533          	or	a0,s3,a0
   13334:	00040593          	mv	a1,s0
   13338:	24d020ef          	jal	ra,15d84 <__mulsf3>
   1333c:	3f46c5b7          	lui	a1,0x3f46c
   13340:	d9458593          	addi	a1,a1,-620 # 3f46bd94 <__BSS_END__+0x3f429c30>
   13344:	0f0020ef          	jal	ra,15434 <__addsf3>
   13348:	00050593          	mv	a1,a0
   1334c:	00040513          	mv	a0,s0
   13350:	235020ef          	jal	ra,15d84 <__mulsf3>
   13354:	00c12983          	lw	s3,12(sp)
   13358:	01012903          	lw	s2,16(sp)
   1335c:	01412483          	lw	s1,20(sp)
   13360:	01812403          	lw	s0,24(sp)
   13364:	01c12083          	lw	ra,28(sp)
   13368:	02010113          	addi	sp,sp,32
   1336c:	00008067          	ret

00013370 <fasttan>:
   13370:	fc010113          	addi	sp,sp,-64
   13374:	02112e23          	sw	ra,60(sp)
   13378:	02812c23          	sw	s0,56(sp)
   1337c:	02912a23          	sw	s1,52(sp)
   13380:	03212823          	sw	s2,48(sp)
   13384:	03312623          	sw	s3,44(sp)
   13388:	03412423          	sw	s4,40(sp)
   1338c:	03512223          	sw	s5,36(sp)
   13390:	03612023          	sw	s6,32(sp)
   13394:	01712e23          	sw	s7,28(sp)
   13398:	01812c23          	sw	s8,24(sp)
   1339c:	01912a23          	sw	s9,20(sp)
   133a0:	01a12823          	sw	s10,16(sp)
   133a4:	01b12623          	sw	s11,12(sp)
   133a8:	00050b13          	mv	s6,a0
   133ac:	80000537          	lui	a0,0x80000
   133b0:	00ab7ab3          	and	s5,s6,a0
   133b4:	fff50513          	addi	a0,a0,-1 # 7fffffff <__BSS_END__+0x7ffbde9b>
   133b8:	00a12423          	sw	a0,8(sp)
   133bc:	00ab7a33          	and	s4,s6,a0
   133c0:	3fa30537          	lui	a0,0x3fa30
   133c4:	98350913          	addi	s2,a0,-1661 # 3fa2f983 <__BSS_END__+0x3f9ed81f>
   133c8:	000b0513          	mv	a0,s6
   133cc:	00090593          	mv	a1,s2
   133d0:	1b5020ef          	jal	ra,15d84 <__mulsf3>
   133d4:	00050413          	mv	s0,a0
   133d8:	3ecf8537          	lui	a0,0x3ecf8
   133dc:	17b50993          	addi	s3,a0,379 # 3ecf817b <__BSS_END__+0x3ecb6017>
   133e0:	000b0513          	mv	a0,s6
   133e4:	00098593          	mv	a1,s3
   133e8:	19d020ef          	jal	ra,15d84 <__mulsf3>
   133ec:	000a0593          	mv	a1,s4
   133f0:	195020ef          	jal	ra,15d84 <__mulsf3>
   133f4:	00050593          	mv	a1,a0
   133f8:	00040513          	mv	a0,s0
   133fc:	501020ef          	jal	ra,160fc <__subsf3>
   13400:	00050413          	mv	s0,a0
   13404:	00050593          	mv	a1,a0
   13408:	17d020ef          	jal	ra,15d84 <__mulsf3>
   1340c:	00050493          	mv	s1,a0
   13410:	3e508537          	lui	a0,0x3e508
   13414:	6d750d93          	addi	s11,a0,1751 # 3e5086d7 <__BSS_END__+0x3e4c6573>
   13418:	01baea33          	or	s4,s5,s11
   1341c:	3c77d537          	lui	a0,0x3c77d
   13420:	e9a50c93          	addi	s9,a0,-358 # 3c77ce9a <__BSS_END__+0x3c73ad36>
   13424:	019aebb3          	or	s7,s5,s9
   13428:	bb533537          	lui	a0,0xbb533
   1342c:	21750d13          	addi	s10,a0,535 # bb533217 <__BSS_END__+0xbb4f10b3>
   13430:	01aacc33          	xor	s8,s5,s10
   13434:	3f48d537          	lui	a0,0x3f48d
   13438:	16150a93          	addi	s5,a0,353 # 3f48d161 <__BSS_END__+0x3f44affd>
   1343c:	00040513          	mv	a0,s0
   13440:	000a8593          	mv	a1,s5
   13444:	141020ef          	jal	ra,15d84 <__mulsf3>
   13448:	00050413          	mv	s0,a0
   1344c:	000c0513          	mv	a0,s8
   13450:	00048593          	mv	a1,s1
   13454:	131020ef          	jal	ra,15d84 <__mulsf3>
   13458:	00050593          	mv	a1,a0
   1345c:	000b8513          	mv	a0,s7
   13460:	7d5010ef          	jal	ra,15434 <__addsf3>
   13464:	00050593          	mv	a1,a0
   13468:	00048513          	mv	a0,s1
   1346c:	119020ef          	jal	ra,15d84 <__mulsf3>
   13470:	00050593          	mv	a1,a0
   13474:	000a0513          	mv	a0,s4
   13478:	7bd010ef          	jal	ra,15434 <__addsf3>
   1347c:	00050593          	mv	a1,a0
   13480:	00048513          	mv	a0,s1
   13484:	101020ef          	jal	ra,15d84 <__mulsf3>
   13488:	00050593          	mv	a1,a0
   1348c:	00040513          	mv	a0,s0
   13490:	7a5010ef          	jal	ra,15434 <__addsf3>
   13494:	00050a13          	mv	s4,a0
   13498:	3fc91537          	lui	a0,0x3fc91
   1349c:	fdb50593          	addi	a1,a0,-37 # 3fc90fdb <__BSS_END__+0x3fc4ee77>
   134a0:	000b0513          	mv	a0,s6
   134a4:	791010ef          	jal	ra,15434 <__addsf3>
   134a8:	00050413          	mv	s0,a0
   134ac:	80000537          	lui	a0,0x80000
   134b0:	00a474b3          	and	s1,s0,a0
   134b4:	00812503          	lw	a0,8(sp)
   134b8:	00a47b33          	and	s6,s0,a0
   134bc:	00040513          	mv	a0,s0
   134c0:	00090593          	mv	a1,s2
   134c4:	0c1020ef          	jal	ra,15d84 <__mulsf3>
   134c8:	00050913          	mv	s2,a0
   134cc:	00040513          	mv	a0,s0
   134d0:	00098593          	mv	a1,s3
   134d4:	0b1020ef          	jal	ra,15d84 <__mulsf3>
   134d8:	000b0593          	mv	a1,s6
   134dc:	0a9020ef          	jal	ra,15d84 <__mulsf3>
   134e0:	00050593          	mv	a1,a0
   134e4:	00090513          	mv	a0,s2
   134e8:	415020ef          	jal	ra,160fc <__subsf3>
   134ec:	00050413          	mv	s0,a0
   134f0:	00050593          	mv	a1,a0
   134f4:	091020ef          	jal	ra,15d84 <__mulsf3>
   134f8:	00050b93          	mv	s7,a0
   134fc:	01b4e933          	or	s2,s1,s11
   13500:	0194e9b3          	or	s3,s1,s9
   13504:	01a4cb33          	xor	s6,s1,s10
   13508:	00040513          	mv	a0,s0
   1350c:	000a8593          	mv	a1,s5
   13510:	075020ef          	jal	ra,15d84 <__mulsf3>
   13514:	00050413          	mv	s0,a0
   13518:	000b0513          	mv	a0,s6
   1351c:	000b8593          	mv	a1,s7
   13520:	065020ef          	jal	ra,15d84 <__mulsf3>
   13524:	00050593          	mv	a1,a0
   13528:	00098513          	mv	a0,s3
   1352c:	709010ef          	jal	ra,15434 <__addsf3>
   13530:	00050593          	mv	a1,a0
   13534:	000b8513          	mv	a0,s7
   13538:	04d020ef          	jal	ra,15d84 <__mulsf3>
   1353c:	00050593          	mv	a1,a0
   13540:	00090513          	mv	a0,s2
   13544:	6f1010ef          	jal	ra,15434 <__addsf3>
   13548:	00050593          	mv	a1,a0
   1354c:	000b8513          	mv	a0,s7
   13550:	035020ef          	jal	ra,15d84 <__mulsf3>
   13554:	00050593          	mv	a1,a0
   13558:	00040513          	mv	a0,s0
   1355c:	6d9010ef          	jal	ra,15434 <__addsf3>
   13560:	00050593          	mv	a1,a0
   13564:	000a0513          	mv	a0,s4
   13568:	320020ef          	jal	ra,15888 <__divsf3>
   1356c:	00c12d83          	lw	s11,12(sp)
   13570:	01012d03          	lw	s10,16(sp)
   13574:	01412c83          	lw	s9,20(sp)
   13578:	01812c03          	lw	s8,24(sp)
   1357c:	01c12b83          	lw	s7,28(sp)
   13580:	02012b03          	lw	s6,32(sp)
   13584:	02412a83          	lw	s5,36(sp)
   13588:	02812a03          	lw	s4,40(sp)
   1358c:	02c12983          	lw	s3,44(sp)
   13590:	03012903          	lw	s2,48(sp)
   13594:	03412483          	lw	s1,52(sp)
   13598:	03812403          	lw	s0,56(sp)
   1359c:	03c12083          	lw	ra,60(sp)
   135a0:	04010113          	addi	sp,sp,64
   135a4:	00008067          	ret

000135a8 <fastertan>:
   135a8:	fe010113          	addi	sp,sp,-32
   135ac:	00112e23          	sw	ra,28(sp)
   135b0:	00812c23          	sw	s0,24(sp)
   135b4:	00912a23          	sw	s1,20(sp)
   135b8:	01212823          	sw	s2,16(sp)
   135bc:	01312623          	sw	s3,12(sp)
   135c0:	00050413          	mv	s0,a0
   135c4:	80000537          	lui	a0,0x80000
   135c8:	00a479b3          	and	s3,s0,a0
   135cc:	fff50513          	addi	a0,a0,-1 # 7fffffff <__BSS_END__+0x7ffbde9b>
   135d0:	00a47933          	and	s2,s0,a0
   135d4:	3fa30537          	lui	a0,0x3fa30
   135d8:	98350593          	addi	a1,a0,-1661 # 3fa2f983 <__BSS_END__+0x3f9ed81f>
   135dc:	00040513          	mv	a0,s0
   135e0:	7a4020ef          	jal	ra,15d84 <__mulsf3>
   135e4:	00050493          	mv	s1,a0
   135e8:	becf8537          	lui	a0,0xbecf8
   135ec:	17b50593          	addi	a1,a0,379 # becf817b <__BSS_END__+0xbecb6017>
   135f0:	00040513          	mv	a0,s0
   135f4:	790020ef          	jal	ra,15d84 <__mulsf3>
   135f8:	00090593          	mv	a1,s2
   135fc:	788020ef          	jal	ra,15d84 <__mulsf3>
   13600:	00050593          	mv	a1,a0
   13604:	00048513          	mv	a0,s1
   13608:	62d010ef          	jal	ra,15434 <__addsf3>
   1360c:	00050413          	mv	s0,a0
   13610:	3e647537          	lui	a0,0x3e647
   13614:	06c50513          	addi	a0,a0,108 # 3e64706c <__BSS_END__+0x3e604f08>
   13618:	00a9e533          	or	a0,s3,a0
   1361c:	00040593          	mv	a1,s0
   13620:	764020ef          	jal	ra,15d84 <__mulsf3>
   13624:	3f46c5b7          	lui	a1,0x3f46c
   13628:	d9458593          	addi	a1,a1,-620 # 3f46bd94 <__BSS_END__+0x3f429c30>
   1362c:	609010ef          	jal	ra,15434 <__addsf3>
   13630:	00050593          	mv	a1,a0
   13634:	00040513          	mv	a0,s0
   13638:	74c020ef          	jal	ra,15d84 <__mulsf3>
   1363c:	00050993          	mv	s3,a0
   13640:	bf230537          	lui	a0,0xbf230
   13644:	98350593          	addi	a1,a0,-1661 # bf22f983 <__BSS_END__+0xbf1ed81f>
   13648:	00090513          	mv	a0,s2
   1364c:	738020ef          	jal	ra,15d84 <__mulsf3>
   13650:	3f8005b7          	lui	a1,0x3f800
   13654:	5e1010ef          	jal	ra,15434 <__addsf3>
   13658:	00050493          	mv	s1,a0
   1365c:	3f0be537          	lui	a0,0x3f0be
   13660:	1bf50593          	addi	a1,a0,447 # 3f0be1bf <__BSS_END__+0x3f07c05b>
   13664:	00048513          	mv	a0,s1
   13668:	71c020ef          	jal	ra,15d84 <__mulsf3>
   1366c:	00050413          	mv	s0,a0
   13670:	00048513          	mv	a0,s1
   13674:	00048593          	mv	a1,s1
   13678:	70c020ef          	jal	ra,15d84 <__mulsf3>
   1367c:	00050593          	mv	a1,a0
   13680:	3f800537          	lui	a0,0x3f800
   13684:	279020ef          	jal	ra,160fc <__subsf3>
   13688:	00050593          	mv	a1,a0
   1368c:	00040513          	mv	a0,s0
   13690:	6f4020ef          	jal	ra,15d84 <__mulsf3>
   13694:	00050593          	mv	a1,a0
   13698:	00048513          	mv	a0,s1
   1369c:	599010ef          	jal	ra,15434 <__addsf3>
   136a0:	00050593          	mv	a1,a0
   136a4:	00098513          	mv	a0,s3
   136a8:	1e0020ef          	jal	ra,15888 <__divsf3>
   136ac:	00c12983          	lw	s3,12(sp)
   136b0:	01012903          	lw	s2,16(sp)
   136b4:	01412483          	lw	s1,20(sp)
   136b8:	01812403          	lw	s0,24(sp)
   136bc:	01c12083          	lw	ra,28(sp)
   136c0:	02010113          	addi	sp,sp,32
   136c4:	00008067          	ret

000136c8 <fasttanfull>:
   136c8:	fc010113          	addi	sp,sp,-64
   136cc:	02112e23          	sw	ra,60(sp)
   136d0:	02812c23          	sw	s0,56(sp)
   136d4:	02912a23          	sw	s1,52(sp)
   136d8:	03212823          	sw	s2,48(sp)
   136dc:	03312623          	sw	s3,44(sp)
   136e0:	03412423          	sw	s4,40(sp)
   136e4:	03512223          	sw	s5,36(sp)
   136e8:	03612023          	sw	s6,32(sp)
   136ec:	01712e23          	sw	s7,28(sp)
   136f0:	01812c23          	sw	s8,24(sp)
   136f4:	01912a23          	sw	s9,20(sp)
   136f8:	01a12823          	sw	s10,16(sp)
   136fc:	01b12623          	sw	s11,12(sp)
   13700:	00050413          	mv	s0,a0
   13704:	3e230537          	lui	a0,0x3e230
   13708:	98350593          	addi	a1,a0,-1661 # 3e22f983 <__BSS_END__+0x3e1ed81f>
   1370c:	00040513          	mv	a0,s0
   13710:	674020ef          	jal	ra,15d84 <__mulsf3>
   13714:	655020ef          	jal	ra,16568 <__fixsfsi>
   13718:	00050913          	mv	s2,a0
   1371c:	00040513          	mv	a0,s0
   13720:	00000593          	li	a1,0
   13724:	5a8020ef          	jal	ra,15ccc <__lesf2>
   13728:	bf0004b7          	lui	s1,0xbf000
   1372c:	00054463          	bltz	a0,13734 <fasttanfull+0x6c>
   13730:	3f0004b7          	lui	s1,0x3f000
   13734:	00090513          	mv	a0,s2
   13738:	705020ef          	jal	ra,1663c <__floatsisf>
   1373c:	00050593          	mv	a1,a0
   13740:	00048513          	mv	a0,s1
   13744:	4f1010ef          	jal	ra,15434 <__addsf3>
   13748:	c0c915b7          	lui	a1,0xc0c91
   1374c:	fdb58593          	addi	a1,a1,-37 # c0c90fdb <__BSS_END__+0xc0c4ee77>
   13750:	634020ef          	jal	ra,15d84 <__mulsf3>
   13754:	00050593          	mv	a1,a0
   13758:	00040513          	mv	a0,s0
   1375c:	4d9010ef          	jal	ra,15434 <__addsf3>
   13760:	00050b13          	mv	s6,a0
   13764:	80000537          	lui	a0,0x80000
   13768:	00ab7ab3          	and	s5,s6,a0
   1376c:	fff50513          	addi	a0,a0,-1 # 7fffffff <__BSS_END__+0x7ffbde9b>
   13770:	00a12423          	sw	a0,8(sp)
   13774:	00ab7a33          	and	s4,s6,a0
   13778:	3fa30537          	lui	a0,0x3fa30
   1377c:	98350913          	addi	s2,a0,-1661 # 3fa2f983 <__BSS_END__+0x3f9ed81f>
   13780:	000b0513          	mv	a0,s6
   13784:	00090593          	mv	a1,s2
   13788:	5fc020ef          	jal	ra,15d84 <__mulsf3>
   1378c:	00050413          	mv	s0,a0
   13790:	3ecf8537          	lui	a0,0x3ecf8
   13794:	17b50993          	addi	s3,a0,379 # 3ecf817b <__BSS_END__+0x3ecb6017>
   13798:	000b0513          	mv	a0,s6
   1379c:	00098593          	mv	a1,s3
   137a0:	5e4020ef          	jal	ra,15d84 <__mulsf3>
   137a4:	000a0593          	mv	a1,s4
   137a8:	5dc020ef          	jal	ra,15d84 <__mulsf3>
   137ac:	00050593          	mv	a1,a0
   137b0:	00040513          	mv	a0,s0
   137b4:	149020ef          	jal	ra,160fc <__subsf3>
   137b8:	00050413          	mv	s0,a0
   137bc:	00050593          	mv	a1,a0
   137c0:	5c4020ef          	jal	ra,15d84 <__mulsf3>
   137c4:	00050493          	mv	s1,a0
   137c8:	3e508537          	lui	a0,0x3e508
   137cc:	6d750d93          	addi	s11,a0,1751 # 3e5086d7 <__BSS_END__+0x3e4c6573>
   137d0:	01baea33          	or	s4,s5,s11
   137d4:	3c77d537          	lui	a0,0x3c77d
   137d8:	e9a50c93          	addi	s9,a0,-358 # 3c77ce9a <__BSS_END__+0x3c73ad36>
   137dc:	019aebb3          	or	s7,s5,s9
   137e0:	bb533537          	lui	a0,0xbb533
   137e4:	21750d13          	addi	s10,a0,535 # bb533217 <__BSS_END__+0xbb4f10b3>
   137e8:	01aacc33          	xor	s8,s5,s10
   137ec:	3f48d537          	lui	a0,0x3f48d
   137f0:	16150a93          	addi	s5,a0,353 # 3f48d161 <__BSS_END__+0x3f44affd>
   137f4:	00040513          	mv	a0,s0
   137f8:	000a8593          	mv	a1,s5
   137fc:	588020ef          	jal	ra,15d84 <__mulsf3>
   13800:	00050413          	mv	s0,a0
   13804:	000c0513          	mv	a0,s8
   13808:	00048593          	mv	a1,s1
   1380c:	578020ef          	jal	ra,15d84 <__mulsf3>
   13810:	00050593          	mv	a1,a0
   13814:	000b8513          	mv	a0,s7
   13818:	41d010ef          	jal	ra,15434 <__addsf3>
   1381c:	00050593          	mv	a1,a0
   13820:	00048513          	mv	a0,s1
   13824:	560020ef          	jal	ra,15d84 <__mulsf3>
   13828:	00050593          	mv	a1,a0
   1382c:	000a0513          	mv	a0,s4
   13830:	405010ef          	jal	ra,15434 <__addsf3>
   13834:	00050593          	mv	a1,a0
   13838:	00048513          	mv	a0,s1
   1383c:	548020ef          	jal	ra,15d84 <__mulsf3>
   13840:	00050593          	mv	a1,a0
   13844:	00040513          	mv	a0,s0
   13848:	3ed010ef          	jal	ra,15434 <__addsf3>
   1384c:	00050a13          	mv	s4,a0
   13850:	3fc91537          	lui	a0,0x3fc91
   13854:	fdb50413          	addi	s0,a0,-37 # 3fc90fdb <__BSS_END__+0x3fc4ee77>
   13858:	000b0513          	mv	a0,s6
   1385c:	00040593          	mv	a1,s0
   13860:	3b4020ef          	jal	ra,15c14 <__gesf2>
   13864:	00a05663          	blez	a0,13870 <fasttanfull+0x1a8>
   13868:	c096d537          	lui	a0,0xc096d
   1386c:	be450413          	addi	s0,a0,-1052 # c096cbe4 <__BSS_END__+0xc092aa80>
   13870:	000b0513          	mv	a0,s6
   13874:	00040593          	mv	a1,s0
   13878:	3bd010ef          	jal	ra,15434 <__addsf3>
   1387c:	00050413          	mv	s0,a0
   13880:	80000537          	lui	a0,0x80000
   13884:	00a474b3          	and	s1,s0,a0
   13888:	00812503          	lw	a0,8(sp)
   1388c:	00a47b33          	and	s6,s0,a0
   13890:	00040513          	mv	a0,s0
   13894:	00090593          	mv	a1,s2
   13898:	4ec020ef          	jal	ra,15d84 <__mulsf3>
   1389c:	00050913          	mv	s2,a0
   138a0:	00040513          	mv	a0,s0
   138a4:	00098593          	mv	a1,s3
   138a8:	4dc020ef          	jal	ra,15d84 <__mulsf3>
   138ac:	000b0593          	mv	a1,s6
   138b0:	4d4020ef          	jal	ra,15d84 <__mulsf3>
   138b4:	00050593          	mv	a1,a0
   138b8:	00090513          	mv	a0,s2
   138bc:	041020ef          	jal	ra,160fc <__subsf3>
   138c0:	00050413          	mv	s0,a0
   138c4:	00050593          	mv	a1,a0
   138c8:	4bc020ef          	jal	ra,15d84 <__mulsf3>
   138cc:	00050b93          	mv	s7,a0
   138d0:	01b4e933          	or	s2,s1,s11
   138d4:	0194e9b3          	or	s3,s1,s9
   138d8:	01a4cb33          	xor	s6,s1,s10
   138dc:	00040513          	mv	a0,s0
   138e0:	000a8593          	mv	a1,s5
   138e4:	4a0020ef          	jal	ra,15d84 <__mulsf3>
   138e8:	00050413          	mv	s0,a0
   138ec:	000b0513          	mv	a0,s6
   138f0:	000b8593          	mv	a1,s7
   138f4:	490020ef          	jal	ra,15d84 <__mulsf3>
   138f8:	00050593          	mv	a1,a0
   138fc:	00098513          	mv	a0,s3
   13900:	335010ef          	jal	ra,15434 <__addsf3>
   13904:	00050593          	mv	a1,a0
   13908:	000b8513          	mv	a0,s7
   1390c:	478020ef          	jal	ra,15d84 <__mulsf3>
   13910:	00050593          	mv	a1,a0
   13914:	00090513          	mv	a0,s2
   13918:	31d010ef          	jal	ra,15434 <__addsf3>
   1391c:	00050593          	mv	a1,a0
   13920:	000b8513          	mv	a0,s7
   13924:	460020ef          	jal	ra,15d84 <__mulsf3>
   13928:	00050593          	mv	a1,a0
   1392c:	00040513          	mv	a0,s0
   13930:	305010ef          	jal	ra,15434 <__addsf3>
   13934:	00050593          	mv	a1,a0
   13938:	000a0513          	mv	a0,s4
   1393c:	74d010ef          	jal	ra,15888 <__divsf3>
   13940:	00c12d83          	lw	s11,12(sp)
   13944:	01012d03          	lw	s10,16(sp)
   13948:	01412c83          	lw	s9,20(sp)
   1394c:	01812c03          	lw	s8,24(sp)
   13950:	01c12b83          	lw	s7,28(sp)
   13954:	02012b03          	lw	s6,32(sp)
   13958:	02412a83          	lw	s5,36(sp)
   1395c:	02812a03          	lw	s4,40(sp)
   13960:	02c12983          	lw	s3,44(sp)
   13964:	03012903          	lw	s2,48(sp)
   13968:	03412483          	lw	s1,52(sp)
   1396c:	03812403          	lw	s0,56(sp)
   13970:	03c12083          	lw	ra,60(sp)
   13974:	04010113          	addi	sp,sp,64
   13978:	00008067          	ret

0001397c <fastertanfull>:
   1397c:	fe010113          	addi	sp,sp,-32
   13980:	00112e23          	sw	ra,28(sp)
   13984:	00812c23          	sw	s0,24(sp)
   13988:	00912a23          	sw	s1,20(sp)
   1398c:	01212823          	sw	s2,16(sp)
   13990:	01312623          	sw	s3,12(sp)
   13994:	00050413          	mv	s0,a0
   13998:	3e230537          	lui	a0,0x3e230
   1399c:	98350593          	addi	a1,a0,-1661 # 3e22f983 <__BSS_END__+0x3e1ed81f>
   139a0:	00040513          	mv	a0,s0
   139a4:	3e0020ef          	jal	ra,15d84 <__mulsf3>
   139a8:	3c1020ef          	jal	ra,16568 <__fixsfsi>
   139ac:	00050913          	mv	s2,a0
   139b0:	00040513          	mv	a0,s0
   139b4:	00000593          	li	a1,0
   139b8:	314020ef          	jal	ra,15ccc <__lesf2>
   139bc:	bf0004b7          	lui	s1,0xbf000
   139c0:	00054463          	bltz	a0,139c8 <fastertanfull+0x4c>
   139c4:	3f0004b7          	lui	s1,0x3f000
   139c8:	00090513          	mv	a0,s2
   139cc:	471020ef          	jal	ra,1663c <__floatsisf>
   139d0:	00050593          	mv	a1,a0
   139d4:	00048513          	mv	a0,s1
   139d8:	25d010ef          	jal	ra,15434 <__addsf3>
   139dc:	c0c915b7          	lui	a1,0xc0c91
   139e0:	fdb58593          	addi	a1,a1,-37 # c0c90fdb <__BSS_END__+0xc0c4ee77>
   139e4:	3a0020ef          	jal	ra,15d84 <__mulsf3>
   139e8:	00050593          	mv	a1,a0
   139ec:	00040513          	mv	a0,s0
   139f0:	245010ef          	jal	ra,15434 <__addsf3>
   139f4:	00050413          	mv	s0,a0
   139f8:	80000537          	lui	a0,0x80000
   139fc:	00a479b3          	and	s3,s0,a0
   13a00:	fff50513          	addi	a0,a0,-1 # 7fffffff <__BSS_END__+0x7ffbde9b>
   13a04:	00a47933          	and	s2,s0,a0
   13a08:	3fa30537          	lui	a0,0x3fa30
   13a0c:	98350593          	addi	a1,a0,-1661 # 3fa2f983 <__BSS_END__+0x3f9ed81f>
   13a10:	00040513          	mv	a0,s0
   13a14:	370020ef          	jal	ra,15d84 <__mulsf3>
   13a18:	00050493          	mv	s1,a0
   13a1c:	becf8537          	lui	a0,0xbecf8
   13a20:	17b50593          	addi	a1,a0,379 # becf817b <__BSS_END__+0xbecb6017>
   13a24:	00040513          	mv	a0,s0
   13a28:	35c020ef          	jal	ra,15d84 <__mulsf3>
   13a2c:	00090593          	mv	a1,s2
   13a30:	354020ef          	jal	ra,15d84 <__mulsf3>
   13a34:	00050593          	mv	a1,a0
   13a38:	00048513          	mv	a0,s1
   13a3c:	1f9010ef          	jal	ra,15434 <__addsf3>
   13a40:	00050413          	mv	s0,a0
   13a44:	3e647537          	lui	a0,0x3e647
   13a48:	06c50513          	addi	a0,a0,108 # 3e64706c <__BSS_END__+0x3e604f08>
   13a4c:	00a9e533          	or	a0,s3,a0
   13a50:	00040593          	mv	a1,s0
   13a54:	330020ef          	jal	ra,15d84 <__mulsf3>
   13a58:	3f46c5b7          	lui	a1,0x3f46c
   13a5c:	d9458593          	addi	a1,a1,-620 # 3f46bd94 <__BSS_END__+0x3f429c30>
   13a60:	1d5010ef          	jal	ra,15434 <__addsf3>
   13a64:	00050593          	mv	a1,a0
   13a68:	00040513          	mv	a0,s0
   13a6c:	318020ef          	jal	ra,15d84 <__mulsf3>
   13a70:	00050993          	mv	s3,a0
   13a74:	bf230537          	lui	a0,0xbf230
   13a78:	98350593          	addi	a1,a0,-1661 # bf22f983 <__BSS_END__+0xbf1ed81f>
   13a7c:	00090513          	mv	a0,s2
   13a80:	304020ef          	jal	ra,15d84 <__mulsf3>
   13a84:	3f8005b7          	lui	a1,0x3f800
   13a88:	1ad010ef          	jal	ra,15434 <__addsf3>
   13a8c:	00050493          	mv	s1,a0
   13a90:	3f0be537          	lui	a0,0x3f0be
   13a94:	1bf50593          	addi	a1,a0,447 # 3f0be1bf <__BSS_END__+0x3f07c05b>
   13a98:	00048513          	mv	a0,s1
   13a9c:	2e8020ef          	jal	ra,15d84 <__mulsf3>
   13aa0:	00050413          	mv	s0,a0
   13aa4:	00048513          	mv	a0,s1
   13aa8:	00048593          	mv	a1,s1
   13aac:	2d8020ef          	jal	ra,15d84 <__mulsf3>
   13ab0:	00050593          	mv	a1,a0
   13ab4:	3f800537          	lui	a0,0x3f800
   13ab8:	644020ef          	jal	ra,160fc <__subsf3>
   13abc:	00050593          	mv	a1,a0
   13ac0:	00040513          	mv	a0,s0
   13ac4:	2c0020ef          	jal	ra,15d84 <__mulsf3>
   13ac8:	00050593          	mv	a1,a0
   13acc:	00048513          	mv	a0,s1
   13ad0:	165010ef          	jal	ra,15434 <__addsf3>
   13ad4:	00050593          	mv	a1,a0
   13ad8:	00098513          	mv	a0,s3
   13adc:	5ad010ef          	jal	ra,15888 <__divsf3>
   13ae0:	00c12983          	lw	s3,12(sp)
   13ae4:	01012903          	lw	s2,16(sp)
   13ae8:	01412483          	lw	s1,20(sp)
   13aec:	01812403          	lw	s0,24(sp)
   13af0:	01c12083          	lw	ra,28(sp)
   13af4:	02010113          	addi	sp,sp,32
   13af8:	00008067          	ret

00013afc <fmaxf>:
   13afc:	ff010113          	addi	sp,sp,-16
   13b00:	00812423          	sw	s0,8(sp)
   13b04:	00912223          	sw	s1,4(sp)
   13b08:	00112623          	sw	ra,12(sp)
   13b0c:	00050413          	mv	s0,a0
   13b10:	00058493          	mv	s1,a1
   13b14:	058000ef          	jal	ra,13b6c <__fpclassifyf>
   13b18:	02051063          	bnez	a0,13b38 <fmaxf+0x3c>
   13b1c:	00048413          	mv	s0,s1
   13b20:	00c12083          	lw	ra,12(sp)
   13b24:	00040513          	mv	a0,s0
   13b28:	00812403          	lw	s0,8(sp)
   13b2c:	00412483          	lw	s1,4(sp)
   13b30:	01010113          	addi	sp,sp,16
   13b34:	00008067          	ret
   13b38:	00048513          	mv	a0,s1
   13b3c:	030000ef          	jal	ra,13b6c <__fpclassifyf>
   13b40:	fe0500e3          	beqz	a0,13b20 <fmaxf+0x24>
   13b44:	00048593          	mv	a1,s1
   13b48:	00040513          	mv	a0,s0
   13b4c:	0c8020ef          	jal	ra,15c14 <__gesf2>
   13b50:	fca056e3          	blez	a0,13b1c <fmaxf+0x20>
   13b54:	00c12083          	lw	ra,12(sp)
   13b58:	00040513          	mv	a0,s0
   13b5c:	00812403          	lw	s0,8(sp)
   13b60:	00412483          	lw	s1,4(sp)
   13b64:	01010113          	addi	sp,sp,16
   13b68:	00008067          	ret

00013b6c <__fpclassifyf>:
   13b6c:	00151513          	slli	a0,a0,0x1
   13b70:	00155793          	srli	a5,a0,0x1
   13b74:	02050e63          	beqz	a0,13bb0 <__fpclassifyf+0x44>
   13b78:	ff800737          	lui	a4,0xff800
   13b7c:	00e78733          	add	a4,a5,a4
   13b80:	7f0006b7          	lui	a3,0x7f000
   13b84:	00400513          	li	a0,4
   13b88:	02d76663          	bltu	a4,a3,13bb4 <__fpclassifyf+0x48>
   13b8c:	00800737          	lui	a4,0x800
   13b90:	fff78693          	addi	a3,a5,-1
   13b94:	ffe70713          	addi	a4,a4,-2 # 7ffffe <__BSS_END__+0x7bde9a>
   13b98:	00300513          	li	a0,3
   13b9c:	00d77c63          	bgeu	a4,a3,13bb4 <__fpclassifyf+0x48>
   13ba0:	80800737          	lui	a4,0x80800
   13ba4:	00e787b3          	add	a5,a5,a4
   13ba8:	0017b513          	seqz	a0,a5
   13bac:	00008067          	ret
   13bb0:	00200513          	li	a0,2
   13bb4:	00008067          	ret

00013bb8 <__adddf3>:
   13bb8:	00100837          	lui	a6,0x100
   13bbc:	fff80813          	addi	a6,a6,-1 # fffff <__BSS_END__+0xbde9b>
   13bc0:	fe010113          	addi	sp,sp,-32
   13bc4:	00b878b3          	and	a7,a6,a1
   13bc8:	0145d713          	srli	a4,a1,0x14
   13bcc:	01d55793          	srli	a5,a0,0x1d
   13bd0:	00d87833          	and	a6,a6,a3
   13bd4:	00812c23          	sw	s0,24(sp)
   13bd8:	7ff77413          	andi	s0,a4,2047
   13bdc:	00389713          	slli	a4,a7,0x3
   13be0:	0146d893          	srli	a7,a3,0x14
   13be4:	00381813          	slli	a6,a6,0x3
   13be8:	00912a23          	sw	s1,20(sp)
   13bec:	00e7e7b3          	or	a5,a5,a4
   13bf0:	7ff8f893          	andi	a7,a7,2047
   13bf4:	01d65713          	srli	a4,a2,0x1d
   13bf8:	00112e23          	sw	ra,28(sp)
   13bfc:	01212823          	sw	s2,16(sp)
   13c00:	01312623          	sw	s3,12(sp)
   13c04:	01f5d493          	srli	s1,a1,0x1f
   13c08:	01f6d693          	srli	a3,a3,0x1f
   13c0c:	01076733          	or	a4,a4,a6
   13c10:	00351513          	slli	a0,a0,0x3
   13c14:	00361613          	slli	a2,a2,0x3
   13c18:	41140833          	sub	a6,s0,a7
   13c1c:	2cd49863          	bne	s1,a3,13eec <__adddf3+0x334>
   13c20:	13005063          	blez	a6,13d40 <__adddf3+0x188>
   13c24:	04089063          	bnez	a7,13c64 <__adddf3+0xac>
   13c28:	00c766b3          	or	a3,a4,a2
   13c2c:	70068e63          	beqz	a3,14348 <__adddf3+0x790>
   13c30:	fff80593          	addi	a1,a6,-1
   13c34:	02059063          	bnez	a1,13c54 <__adddf3+0x9c>
   13c38:	00c50633          	add	a2,a0,a2
   13c3c:	00e78733          	add	a4,a5,a4
   13c40:	00a637b3          	sltu	a5,a2,a0
   13c44:	00f707b3          	add	a5,a4,a5
   13c48:	00060513          	mv	a0,a2
   13c4c:	00100413          	li	s0,1
   13c50:	0700006f          	j	13cc0 <__adddf3+0x108>
   13c54:	7ff00693          	li	a3,2047
   13c58:	02d81063          	bne	a6,a3,13c78 <__adddf3+0xc0>
   13c5c:	7ff00413          	li	s0,2047
   13c60:	2140006f          	j	13e74 <__adddf3+0x2bc>
   13c64:	7ff00693          	li	a3,2047
   13c68:	20d40663          	beq	s0,a3,13e74 <__adddf3+0x2bc>
   13c6c:	008006b7          	lui	a3,0x800
   13c70:	00d76733          	or	a4,a4,a3
   13c74:	00080593          	mv	a1,a6
   13c78:	03800693          	li	a3,56
   13c7c:	0ab6cc63          	blt	a3,a1,13d34 <__adddf3+0x17c>
   13c80:	01f00693          	li	a3,31
   13c84:	06b6ce63          	blt	a3,a1,13d00 <__adddf3+0x148>
   13c88:	02000813          	li	a6,32
   13c8c:	40b80833          	sub	a6,a6,a1
   13c90:	010716b3          	sll	a3,a4,a6
   13c94:	00b658b3          	srl	a7,a2,a1
   13c98:	01061833          	sll	a6,a2,a6
   13c9c:	0116e6b3          	or	a3,a3,a7
   13ca0:	01003833          	snez	a6,a6
   13ca4:	0106e6b3          	or	a3,a3,a6
   13ca8:	00b755b3          	srl	a1,a4,a1
   13cac:	00a686b3          	add	a3,a3,a0
   13cb0:	00f585b3          	add	a1,a1,a5
   13cb4:	00a6b7b3          	sltu	a5,a3,a0
   13cb8:	00f587b3          	add	a5,a1,a5
   13cbc:	00068513          	mv	a0,a3
   13cc0:	00800737          	lui	a4,0x800
   13cc4:	00e7f733          	and	a4,a5,a4
   13cc8:	1a070663          	beqz	a4,13e74 <__adddf3+0x2bc>
   13ccc:	00140413          	addi	s0,s0,1 # c2fc0001 <__BSS_END__+0xc2f7de9d>
   13cd0:	7ff00713          	li	a4,2047
   13cd4:	5ce40a63          	beq	s0,a4,142a8 <__adddf3+0x6f0>
   13cd8:	ff800737          	lui	a4,0xff800
   13cdc:	fff70713          	addi	a4,a4,-1 # ff7fffff <__BSS_END__+0xff7bde9b>
   13ce0:	00e7f7b3          	and	a5,a5,a4
   13ce4:	00155713          	srli	a4,a0,0x1
   13ce8:	00157513          	andi	a0,a0,1
   13cec:	00a76733          	or	a4,a4,a0
   13cf0:	01f79513          	slli	a0,a5,0x1f
   13cf4:	00e56533          	or	a0,a0,a4
   13cf8:	0017d793          	srli	a5,a5,0x1
   13cfc:	1780006f          	j	13e74 <__adddf3+0x2bc>
   13d00:	fe058693          	addi	a3,a1,-32 # 3f7fffe0 <__BSS_END__+0x3f7bde7c>
   13d04:	02000893          	li	a7,32
   13d08:	00d756b3          	srl	a3,a4,a3
   13d0c:	00000813          	li	a6,0
   13d10:	01158863          	beq	a1,a7,13d20 <__adddf3+0x168>
   13d14:	04000813          	li	a6,64
   13d18:	40b80833          	sub	a6,a6,a1
   13d1c:	01071833          	sll	a6,a4,a6
   13d20:	00c86833          	or	a6,a6,a2
   13d24:	01003833          	snez	a6,a6
   13d28:	0106e6b3          	or	a3,a3,a6
   13d2c:	00000593          	li	a1,0
   13d30:	f7dff06f          	j	13cac <__adddf3+0xf4>
   13d34:	00c766b3          	or	a3,a4,a2
   13d38:	00d036b3          	snez	a3,a3
   13d3c:	ff1ff06f          	j	13d2c <__adddf3+0x174>
   13d40:	0e080263          	beqz	a6,13e24 <__adddf3+0x26c>
   13d44:	408885b3          	sub	a1,a7,s0
   13d48:	02041e63          	bnez	s0,13d84 <__adddf3+0x1cc>
   13d4c:	00a7e6b3          	or	a3,a5,a0
   13d50:	52068c63          	beqz	a3,14288 <__adddf3+0x6d0>
   13d54:	fff58693          	addi	a3,a1,-1
   13d58:	00069c63          	bnez	a3,13d70 <__adddf3+0x1b8>
   13d5c:	00c50533          	add	a0,a0,a2
   13d60:	00e78733          	add	a4,a5,a4
   13d64:	00c53633          	sltu	a2,a0,a2
   13d68:	00c707b3          	add	a5,a4,a2
   13d6c:	ee1ff06f          	j	13c4c <__adddf3+0x94>
   13d70:	7ff00813          	li	a6,2047
   13d74:	03059263          	bne	a1,a6,13d98 <__adddf3+0x1e0>
   13d78:	00070793          	mv	a5,a4
   13d7c:	00060513          	mv	a0,a2
   13d80:	eddff06f          	j	13c5c <__adddf3+0xa4>
   13d84:	7ff00693          	li	a3,2047
   13d88:	fed888e3          	beq	a7,a3,13d78 <__adddf3+0x1c0>
   13d8c:	008006b7          	lui	a3,0x800
   13d90:	00d7e7b3          	or	a5,a5,a3
   13d94:	00058693          	mv	a3,a1
   13d98:	03800593          	li	a1,56
   13d9c:	06d5ce63          	blt	a1,a3,13e18 <__adddf3+0x260>
   13da0:	01f00593          	li	a1,31
   13da4:	04d5c063          	blt	a1,a3,13de4 <__adddf3+0x22c>
   13da8:	02000813          	li	a6,32
   13dac:	40d80833          	sub	a6,a6,a3
   13db0:	010795b3          	sll	a1,a5,a6
   13db4:	00d55333          	srl	t1,a0,a3
   13db8:	01051833          	sll	a6,a0,a6
   13dbc:	0065e5b3          	or	a1,a1,t1
   13dc0:	01003833          	snez	a6,a6
   13dc4:	0105e5b3          	or	a1,a1,a6
   13dc8:	00d7d6b3          	srl	a3,a5,a3
   13dcc:	00c58533          	add	a0,a1,a2
   13dd0:	00e686b3          	add	a3,a3,a4
   13dd4:	00c53633          	sltu	a2,a0,a2
   13dd8:	00c687b3          	add	a5,a3,a2
   13ddc:	00088413          	mv	s0,a7
   13de0:	ee1ff06f          	j	13cc0 <__adddf3+0x108>
   13de4:	fe068593          	addi	a1,a3,-32 # 7fffe0 <__BSS_END__+0x7bde7c>
   13de8:	02000313          	li	t1,32
   13dec:	00b7d5b3          	srl	a1,a5,a1
   13df0:	00000813          	li	a6,0
   13df4:	00668863          	beq	a3,t1,13e04 <__adddf3+0x24c>
   13df8:	04000813          	li	a6,64
   13dfc:	40d80833          	sub	a6,a6,a3
   13e00:	01079833          	sll	a6,a5,a6
   13e04:	00a86833          	or	a6,a6,a0
   13e08:	01003833          	snez	a6,a6
   13e0c:	0105e5b3          	or	a1,a1,a6
   13e10:	00000693          	li	a3,0
   13e14:	fb9ff06f          	j	13dcc <__adddf3+0x214>
   13e18:	00a7e5b3          	or	a1,a5,a0
   13e1c:	00b035b3          	snez	a1,a1
   13e20:	ff1ff06f          	j	13e10 <__adddf3+0x258>
   13e24:	00140693          	addi	a3,s0,1
   13e28:	7fe6f593          	andi	a1,a3,2046
   13e2c:	08059863          	bnez	a1,13ebc <__adddf3+0x304>
   13e30:	00a7e6b3          	or	a3,a5,a0
   13e34:	06041463          	bnez	s0,13e9c <__adddf3+0x2e4>
   13e38:	46068063          	beqz	a3,14298 <__adddf3+0x6e0>
   13e3c:	00c766b3          	or	a3,a4,a2
   13e40:	02068a63          	beqz	a3,13e74 <__adddf3+0x2bc>
   13e44:	00c50633          	add	a2,a0,a2
   13e48:	00e78733          	add	a4,a5,a4
   13e4c:	00a637b3          	sltu	a5,a2,a0
   13e50:	00f707b3          	add	a5,a4,a5
   13e54:	00800737          	lui	a4,0x800
   13e58:	00e7f733          	and	a4,a5,a4
   13e5c:	00060513          	mv	a0,a2
   13e60:	00070a63          	beqz	a4,13e74 <__adddf3+0x2bc>
   13e64:	ff800737          	lui	a4,0xff800
   13e68:	fff70713          	addi	a4,a4,-1 # ff7fffff <__BSS_END__+0xff7bde9b>
   13e6c:	00e7f7b3          	and	a5,a5,a4
   13e70:	00100413          	li	s0,1
   13e74:	00757713          	andi	a4,a0,7
   13e78:	42070c63          	beqz	a4,142b0 <__adddf3+0x6f8>
   13e7c:	00f57713          	andi	a4,a0,15
   13e80:	00400693          	li	a3,4
   13e84:	42d70663          	beq	a4,a3,142b0 <__adddf3+0x6f8>
   13e88:	00450713          	addi	a4,a0,4 # 3f800004 <__BSS_END__+0x3f7bdea0>
   13e8c:	00a73533          	sltu	a0,a4,a0
   13e90:	00a787b3          	add	a5,a5,a0
   13e94:	00070513          	mv	a0,a4
   13e98:	4180006f          	j	142b0 <__adddf3+0x6f8>
   13e9c:	ec068ee3          	beqz	a3,13d78 <__adddf3+0x1c0>
   13ea0:	00c76733          	or	a4,a4,a2
   13ea4:	da070ce3          	beqz	a4,13c5c <__adddf3+0xa4>
   13ea8:	00000493          	li	s1,0
   13eac:	004007b7          	lui	a5,0x400
   13eb0:	00000513          	li	a0,0
   13eb4:	7ff00413          	li	s0,2047
   13eb8:	3f80006f          	j	142b0 <__adddf3+0x6f8>
   13ebc:	7ff00593          	li	a1,2047
   13ec0:	3eb68263          	beq	a3,a1,142a4 <__adddf3+0x6ec>
   13ec4:	00c50633          	add	a2,a0,a2
   13ec8:	00a63533          	sltu	a0,a2,a0
   13ecc:	00e78733          	add	a4,a5,a4
   13ed0:	00a70733          	add	a4,a4,a0
   13ed4:	01f71513          	slli	a0,a4,0x1f
   13ed8:	00165613          	srli	a2,a2,0x1
   13edc:	00c56533          	or	a0,a0,a2
   13ee0:	00175793          	srli	a5,a4,0x1
   13ee4:	00068413          	mv	s0,a3
   13ee8:	f8dff06f          	j	13e74 <__adddf3+0x2bc>
   13eec:	0f005c63          	blez	a6,13fe4 <__adddf3+0x42c>
   13ef0:	08089e63          	bnez	a7,13f8c <__adddf3+0x3d4>
   13ef4:	00c766b3          	or	a3,a4,a2
   13ef8:	44068863          	beqz	a3,14348 <__adddf3+0x790>
   13efc:	fff80593          	addi	a1,a6,-1
   13f00:	02059063          	bnez	a1,13f20 <__adddf3+0x368>
   13f04:	40c50633          	sub	a2,a0,a2
   13f08:	40e78733          	sub	a4,a5,a4
   13f0c:	00c537b3          	sltu	a5,a0,a2
   13f10:	40f707b3          	sub	a5,a4,a5
   13f14:	00060513          	mv	a0,a2
   13f18:	00100413          	li	s0,1
   13f1c:	0540006f          	j	13f70 <__adddf3+0x3b8>
   13f20:	7ff00693          	li	a3,2047
   13f24:	d2d80ce3          	beq	a6,a3,13c5c <__adddf3+0xa4>
   13f28:	03800693          	li	a3,56
   13f2c:	0ab6c663          	blt	a3,a1,13fd8 <__adddf3+0x420>
   13f30:	01f00693          	li	a3,31
   13f34:	06b6c863          	blt	a3,a1,13fa4 <__adddf3+0x3ec>
   13f38:	02000813          	li	a6,32
   13f3c:	40b80833          	sub	a6,a6,a1
   13f40:	010716b3          	sll	a3,a4,a6
   13f44:	00b658b3          	srl	a7,a2,a1
   13f48:	01061833          	sll	a6,a2,a6
   13f4c:	0116e6b3          	or	a3,a3,a7
   13f50:	01003833          	snez	a6,a6
   13f54:	0106e6b3          	or	a3,a3,a6
   13f58:	00b755b3          	srl	a1,a4,a1
   13f5c:	40d506b3          	sub	a3,a0,a3
   13f60:	40b785b3          	sub	a1,a5,a1
   13f64:	00d537b3          	sltu	a5,a0,a3
   13f68:	40f587b3          	sub	a5,a1,a5
   13f6c:	00068513          	mv	a0,a3
   13f70:	00800937          	lui	s2,0x800
   13f74:	0127f733          	and	a4,a5,s2
   13f78:	ee070ee3          	beqz	a4,13e74 <__adddf3+0x2bc>
   13f7c:	fff90913          	addi	s2,s2,-1 # 7fffff <__BSS_END__+0x7bde9b>
   13f80:	0127f933          	and	s2,a5,s2
   13f84:	00050993          	mv	s3,a0
   13f88:	2140006f          	j	1419c <__adddf3+0x5e4>
   13f8c:	7ff00693          	li	a3,2047
   13f90:	eed402e3          	beq	s0,a3,13e74 <__adddf3+0x2bc>
   13f94:	008006b7          	lui	a3,0x800
   13f98:	00d76733          	or	a4,a4,a3
   13f9c:	00080593          	mv	a1,a6
   13fa0:	f89ff06f          	j	13f28 <__adddf3+0x370>
   13fa4:	fe058693          	addi	a3,a1,-32
   13fa8:	02000893          	li	a7,32
   13fac:	00d756b3          	srl	a3,a4,a3
   13fb0:	00000813          	li	a6,0
   13fb4:	01158863          	beq	a1,a7,13fc4 <__adddf3+0x40c>
   13fb8:	04000813          	li	a6,64
   13fbc:	40b80833          	sub	a6,a6,a1
   13fc0:	01071833          	sll	a6,a4,a6
   13fc4:	00c86833          	or	a6,a6,a2
   13fc8:	01003833          	snez	a6,a6
   13fcc:	0106e6b3          	or	a3,a3,a6
   13fd0:	00000593          	li	a1,0
   13fd4:	f89ff06f          	j	13f5c <__adddf3+0x3a4>
   13fd8:	00c766b3          	or	a3,a4,a2
   13fdc:	00d036b3          	snez	a3,a3
   13fe0:	ff1ff06f          	j	13fd0 <__adddf3+0x418>
   13fe4:	0e080863          	beqz	a6,140d4 <__adddf3+0x51c>
   13fe8:	40888833          	sub	a6,a7,s0
   13fec:	04041263          	bnez	s0,14030 <__adddf3+0x478>
   13ff0:	00a7e5b3          	or	a1,a5,a0
   13ff4:	34058e63          	beqz	a1,14350 <__adddf3+0x798>
   13ff8:	fff80593          	addi	a1,a6,-1
   13ffc:	00059e63          	bnez	a1,14018 <__adddf3+0x460>
   14000:	40a60533          	sub	a0,a2,a0
   14004:	40f70733          	sub	a4,a4,a5
   14008:	00a63633          	sltu	a2,a2,a0
   1400c:	40c707b3          	sub	a5,a4,a2
   14010:	00068493          	mv	s1,a3
   14014:	f05ff06f          	j	13f18 <__adddf3+0x360>
   14018:	7ff00313          	li	t1,2047
   1401c:	02681463          	bne	a6,t1,14044 <__adddf3+0x48c>
   14020:	00070793          	mv	a5,a4
   14024:	00060513          	mv	a0,a2
   14028:	7ff00413          	li	s0,2047
   1402c:	0d00006f          	j	140fc <__adddf3+0x544>
   14030:	7ff00593          	li	a1,2047
   14034:	feb886e3          	beq	a7,a1,14020 <__adddf3+0x468>
   14038:	008005b7          	lui	a1,0x800
   1403c:	00b7e7b3          	or	a5,a5,a1
   14040:	00080593          	mv	a1,a6
   14044:	03800813          	li	a6,56
   14048:	08b84063          	blt	a6,a1,140c8 <__adddf3+0x510>
   1404c:	01f00813          	li	a6,31
   14050:	04b84263          	blt	a6,a1,14094 <__adddf3+0x4dc>
   14054:	02000313          	li	t1,32
   14058:	40b30333          	sub	t1,t1,a1
   1405c:	00b55e33          	srl	t3,a0,a1
   14060:	00679833          	sll	a6,a5,t1
   14064:	00651333          	sll	t1,a0,t1
   14068:	01c86833          	or	a6,a6,t3
   1406c:	00603333          	snez	t1,t1
   14070:	00686533          	or	a0,a6,t1
   14074:	00b7d5b3          	srl	a1,a5,a1
   14078:	40a60533          	sub	a0,a2,a0
   1407c:	40b705b3          	sub	a1,a4,a1
   14080:	00a63633          	sltu	a2,a2,a0
   14084:	40c587b3          	sub	a5,a1,a2
   14088:	00088413          	mv	s0,a7
   1408c:	00068493          	mv	s1,a3
   14090:	ee1ff06f          	j	13f70 <__adddf3+0x3b8>
   14094:	fe058813          	addi	a6,a1,-32 # 7fffe0 <__BSS_END__+0x7bde7c>
   14098:	02000e13          	li	t3,32
   1409c:	0107d833          	srl	a6,a5,a6
   140a0:	00000313          	li	t1,0
   140a4:	01c58863          	beq	a1,t3,140b4 <__adddf3+0x4fc>
   140a8:	04000313          	li	t1,64
   140ac:	40b30333          	sub	t1,t1,a1
   140b0:	00679333          	sll	t1,a5,t1
   140b4:	00a36333          	or	t1,t1,a0
   140b8:	00603333          	snez	t1,t1
   140bc:	00686533          	or	a0,a6,t1
   140c0:	00000593          	li	a1,0
   140c4:	fb5ff06f          	j	14078 <__adddf3+0x4c0>
   140c8:	00a7e533          	or	a0,a5,a0
   140cc:	00a03533          	snez	a0,a0
   140d0:	ff1ff06f          	j	140c0 <__adddf3+0x508>
   140d4:	00140593          	addi	a1,s0,1
   140d8:	7fe5f593          	andi	a1,a1,2046
   140dc:	08059863          	bnez	a1,1416c <__adddf3+0x5b4>
   140e0:	00a7e833          	or	a6,a5,a0
   140e4:	00c765b3          	or	a1,a4,a2
   140e8:	06041263          	bnez	s0,1414c <__adddf3+0x594>
   140ec:	00081c63          	bnez	a6,14104 <__adddf3+0x54c>
   140f0:	26058863          	beqz	a1,14360 <__adddf3+0x7a8>
   140f4:	00070793          	mv	a5,a4
   140f8:	00060513          	mv	a0,a2
   140fc:	00068493          	mv	s1,a3
   14100:	d75ff06f          	j	13e74 <__adddf3+0x2bc>
   14104:	d60588e3          	beqz	a1,13e74 <__adddf3+0x2bc>
   14108:	40c50833          	sub	a6,a0,a2
   1410c:	010538b3          	sltu	a7,a0,a6
   14110:	40e785b3          	sub	a1,a5,a4
   14114:	411585b3          	sub	a1,a1,a7
   14118:	008008b7          	lui	a7,0x800
   1411c:	0115f8b3          	and	a7,a1,a7
   14120:	00088c63          	beqz	a7,14138 <__adddf3+0x580>
   14124:	40a60533          	sub	a0,a2,a0
   14128:	40f70733          	sub	a4,a4,a5
   1412c:	00a63633          	sltu	a2,a2,a0
   14130:	40c707b3          	sub	a5,a4,a2
   14134:	fc9ff06f          	j	140fc <__adddf3+0x544>
   14138:	00b86533          	or	a0,a6,a1
   1413c:	22050a63          	beqz	a0,14370 <__adddf3+0x7b8>
   14140:	00058793          	mv	a5,a1
   14144:	00080513          	mv	a0,a6
   14148:	d2dff06f          	j	13e74 <__adddf3+0x2bc>
   1414c:	00081c63          	bnez	a6,14164 <__adddf3+0x5ac>
   14150:	22058463          	beqz	a1,14378 <__adddf3+0x7c0>
   14154:	00070793          	mv	a5,a4
   14158:	00060513          	mv	a0,a2
   1415c:	00068493          	mv	s1,a3
   14160:	afdff06f          	j	13c5c <__adddf3+0xa4>
   14164:	ae058ce3          	beqz	a1,13c5c <__adddf3+0xa4>
   14168:	d41ff06f          	j	13ea8 <__adddf3+0x2f0>
   1416c:	40c509b3          	sub	s3,a0,a2
   14170:	013535b3          	sltu	a1,a0,s3
   14174:	40e78933          	sub	s2,a5,a4
   14178:	40b90933          	sub	s2,s2,a1
   1417c:	008005b7          	lui	a1,0x800
   14180:	00b975b3          	and	a1,s2,a1
   14184:	08058463          	beqz	a1,1420c <__adddf3+0x654>
   14188:	40a609b3          	sub	s3,a2,a0
   1418c:	40f70933          	sub	s2,a4,a5
   14190:	01363633          	sltu	a2,a2,s3
   14194:	40c90933          	sub	s2,s2,a2
   14198:	00068493          	mv	s1,a3
   1419c:	08090263          	beqz	s2,14220 <__adddf3+0x668>
   141a0:	00090513          	mv	a0,s2
   141a4:	059020ef          	jal	ra,169fc <__clzsi2>
   141a8:	ff850713          	addi	a4,a0,-8
   141ac:	01f00793          	li	a5,31
   141b0:	08e7c063          	blt	a5,a4,14230 <__adddf3+0x678>
   141b4:	02000793          	li	a5,32
   141b8:	40e787b3          	sub	a5,a5,a4
   141bc:	00e91933          	sll	s2,s2,a4
   141c0:	00f9d7b3          	srl	a5,s3,a5
   141c4:	0127e7b3          	or	a5,a5,s2
   141c8:	00e99533          	sll	a0,s3,a4
   141cc:	0a874463          	blt	a4,s0,14274 <__adddf3+0x6bc>
   141d0:	40870733          	sub	a4,a4,s0
   141d4:	00170613          	addi	a2,a4,1
   141d8:	01f00693          	li	a3,31
   141dc:	06c6c263          	blt	a3,a2,14240 <__adddf3+0x688>
   141e0:	02000713          	li	a4,32
   141e4:	40c70733          	sub	a4,a4,a2
   141e8:	00e796b3          	sll	a3,a5,a4
   141ec:	00c555b3          	srl	a1,a0,a2
   141f0:	00e51733          	sll	a4,a0,a4
   141f4:	00b6e6b3          	or	a3,a3,a1
   141f8:	00e03733          	snez	a4,a4
   141fc:	00e6e533          	or	a0,a3,a4
   14200:	00c7d7b3          	srl	a5,a5,a2
   14204:	00000413          	li	s0,0
   14208:	c6dff06f          	j	13e74 <__adddf3+0x2bc>
   1420c:	0129e533          	or	a0,s3,s2
   14210:	f80516e3          	bnez	a0,1419c <__adddf3+0x5e4>
   14214:	00000793          	li	a5,0
   14218:	00000413          	li	s0,0
   1421c:	14c0006f          	j	14368 <__adddf3+0x7b0>
   14220:	00098513          	mv	a0,s3
   14224:	7d8020ef          	jal	ra,169fc <__clzsi2>
   14228:	02050513          	addi	a0,a0,32
   1422c:	f7dff06f          	j	141a8 <__adddf3+0x5f0>
   14230:	fd850793          	addi	a5,a0,-40
   14234:	00f997b3          	sll	a5,s3,a5
   14238:	00000513          	li	a0,0
   1423c:	f91ff06f          	j	141cc <__adddf3+0x614>
   14240:	fe170713          	addi	a4,a4,-31
   14244:	02000593          	li	a1,32
   14248:	00e7d733          	srl	a4,a5,a4
   1424c:	00000693          	li	a3,0
   14250:	00b60863          	beq	a2,a1,14260 <__adddf3+0x6a8>
   14254:	04000693          	li	a3,64
   14258:	40c686b3          	sub	a3,a3,a2
   1425c:	00d796b3          	sll	a3,a5,a3
   14260:	00d566b3          	or	a3,a0,a3
   14264:	00d036b3          	snez	a3,a3
   14268:	00d76533          	or	a0,a4,a3
   1426c:	00000793          	li	a5,0
   14270:	f95ff06f          	j	14204 <__adddf3+0x64c>
   14274:	40e40433          	sub	s0,s0,a4
   14278:	ff800737          	lui	a4,0xff800
   1427c:	fff70713          	addi	a4,a4,-1 # ff7fffff <__BSS_END__+0xff7bde9b>
   14280:	00e7f7b3          	and	a5,a5,a4
   14284:	bf1ff06f          	j	13e74 <__adddf3+0x2bc>
   14288:	00070793          	mv	a5,a4
   1428c:	00060513          	mv	a0,a2
   14290:	00058413          	mv	s0,a1
   14294:	be1ff06f          	j	13e74 <__adddf3+0x2bc>
   14298:	00070793          	mv	a5,a4
   1429c:	00060513          	mv	a0,a2
   142a0:	bd5ff06f          	j	13e74 <__adddf3+0x2bc>
   142a4:	7ff00413          	li	s0,2047
   142a8:	00000793          	li	a5,0
   142ac:	00000513          	li	a0,0
   142b0:	00800737          	lui	a4,0x800
   142b4:	00e7f733          	and	a4,a5,a4
   142b8:	00070e63          	beqz	a4,142d4 <__adddf3+0x71c>
   142bc:	00140413          	addi	s0,s0,1
   142c0:	7ff00713          	li	a4,2047
   142c4:	0ce40263          	beq	s0,a4,14388 <__adddf3+0x7d0>
   142c8:	ff800737          	lui	a4,0xff800
   142cc:	fff70713          	addi	a4,a4,-1 # ff7fffff <__BSS_END__+0xff7bde9b>
   142d0:	00e7f7b3          	and	a5,a5,a4
   142d4:	01d79693          	slli	a3,a5,0x1d
   142d8:	00355513          	srli	a0,a0,0x3
   142dc:	7ff00713          	li	a4,2047
   142e0:	00a6e6b3          	or	a3,a3,a0
   142e4:	0037d793          	srli	a5,a5,0x3
   142e8:	00e41e63          	bne	s0,a4,14304 <__adddf3+0x74c>
   142ec:	00f6e6b3          	or	a3,a3,a5
   142f0:	00000793          	li	a5,0
   142f4:	00068863          	beqz	a3,14304 <__adddf3+0x74c>
   142f8:	000807b7          	lui	a5,0x80
   142fc:	00000693          	li	a3,0
   14300:	00000493          	li	s1,0
   14304:	01441713          	slli	a4,s0,0x14
   14308:	7ff00637          	lui	a2,0x7ff00
   1430c:	00c79793          	slli	a5,a5,0xc
   14310:	01c12083          	lw	ra,28(sp)
   14314:	01812403          	lw	s0,24(sp)
   14318:	00c77733          	and	a4,a4,a2
   1431c:	00c7d793          	srli	a5,a5,0xc
   14320:	01f49493          	slli	s1,s1,0x1f
   14324:	00f767b3          	or	a5,a4,a5
   14328:	0097e733          	or	a4,a5,s1
   1432c:	01012903          	lw	s2,16(sp)
   14330:	01412483          	lw	s1,20(sp)
   14334:	00c12983          	lw	s3,12(sp)
   14338:	00068513          	mv	a0,a3
   1433c:	00070593          	mv	a1,a4
   14340:	02010113          	addi	sp,sp,32
   14344:	00008067          	ret
   14348:	00080413          	mv	s0,a6
   1434c:	b29ff06f          	j	13e74 <__adddf3+0x2bc>
   14350:	00070793          	mv	a5,a4
   14354:	00060513          	mv	a0,a2
   14358:	00080413          	mv	s0,a6
   1435c:	da1ff06f          	j	140fc <__adddf3+0x544>
   14360:	00000793          	li	a5,0
   14364:	00000513          	li	a0,0
   14368:	00000493          	li	s1,0
   1436c:	f45ff06f          	j	142b0 <__adddf3+0x6f8>
   14370:	00000793          	li	a5,0
   14374:	ff5ff06f          	j	14368 <__adddf3+0x7b0>
   14378:	00000513          	li	a0,0
   1437c:	00000493          	li	s1,0
   14380:	004007b7          	lui	a5,0x400
   14384:	b31ff06f          	j	13eb4 <__adddf3+0x2fc>
   14388:	00000793          	li	a5,0
   1438c:	00000513          	li	a0,0
   14390:	f45ff06f          	j	142d4 <__adddf3+0x71c>

00014394 <__muldf3>:
   14394:	fd010113          	addi	sp,sp,-48
   14398:	01312e23          	sw	s3,28(sp)
   1439c:	0145d993          	srli	s3,a1,0x14
   143a0:	02812423          	sw	s0,40(sp)
   143a4:	02912223          	sw	s1,36(sp)
   143a8:	01412c23          	sw	s4,24(sp)
   143ac:	01512a23          	sw	s5,20(sp)
   143b0:	01712623          	sw	s7,12(sp)
   143b4:	00c59493          	slli	s1,a1,0xc
   143b8:	02112623          	sw	ra,44(sp)
   143bc:	03212023          	sw	s2,32(sp)
   143c0:	01612823          	sw	s6,16(sp)
   143c4:	7ff9f993          	andi	s3,s3,2047
   143c8:	00050413          	mv	s0,a0
   143cc:	00060b93          	mv	s7,a2
   143d0:	00068a13          	mv	s4,a3
   143d4:	00c4d493          	srli	s1,s1,0xc
   143d8:	01f5da93          	srli	s5,a1,0x1f
   143dc:	3c098863          	beqz	s3,147ac <__muldf3+0x418>
   143e0:	7ff00793          	li	a5,2047
   143e4:	42f98663          	beq	s3,a5,14810 <__muldf3+0x47c>
   143e8:	00349493          	slli	s1,s1,0x3
   143ec:	01d55793          	srli	a5,a0,0x1d
   143f0:	0097e7b3          	or	a5,a5,s1
   143f4:	008004b7          	lui	s1,0x800
   143f8:	0097e4b3          	or	s1,a5,s1
   143fc:	00351913          	slli	s2,a0,0x3
   14400:	c0198993          	addi	s3,s3,-1023
   14404:	00000b13          	li	s6,0
   14408:	014a5713          	srli	a4,s4,0x14
   1440c:	00ca1413          	slli	s0,s4,0xc
   14410:	7ff77713          	andi	a4,a4,2047
   14414:	00c45413          	srli	s0,s0,0xc
   14418:	01fa5a13          	srli	s4,s4,0x1f
   1441c:	42070663          	beqz	a4,14848 <__muldf3+0x4b4>
   14420:	7ff00793          	li	a5,2047
   14424:	48f70663          	beq	a4,a5,148b0 <__muldf3+0x51c>
   14428:	00341413          	slli	s0,s0,0x3
   1442c:	01dbd793          	srli	a5,s7,0x1d
   14430:	0087e7b3          	or	a5,a5,s0
   14434:	00800437          	lui	s0,0x800
   14438:	0087e433          	or	s0,a5,s0
   1443c:	c0170713          	addi	a4,a4,-1023
   14440:	003b9793          	slli	a5,s7,0x3
   14444:	00000613          	li	a2,0
   14448:	00e989b3          	add	s3,s3,a4
   1444c:	002b1713          	slli	a4,s6,0x2
   14450:	00c76733          	or	a4,a4,a2
   14454:	00a00693          	li	a3,10
   14458:	014ac833          	xor	a6,s5,s4
   1445c:	00198893          	addi	a7,s3,1
   14460:	4ce6c863          	blt	a3,a4,14930 <__muldf3+0x59c>
   14464:	00200693          	li	a3,2
   14468:	48e6c063          	blt	a3,a4,148e8 <__muldf3+0x554>
   1446c:	fff70713          	addi	a4,a4,-1
   14470:	00100693          	li	a3,1
   14474:	48e6fc63          	bgeu	a3,a4,1490c <__muldf3+0x578>
   14478:	00010a37          	lui	s4,0x10
   1447c:	fffa0393          	addi	t2,s4,-1 # ffff <exit-0xb5>
   14480:	0107d293          	srli	t0,a5,0x10
   14484:	00797e33          	and	t3,s2,t2
   14488:	0077f7b3          	and	a5,a5,t2
   1448c:	01095f93          	srli	t6,s2,0x10
   14490:	000e0513          	mv	a0,t3
   14494:	00078593          	mv	a1,a5
   14498:	38c020ef          	jal	ra,16824 <__mulsi3>
   1449c:	00050e93          	mv	t4,a0
   144a0:	00028593          	mv	a1,t0
   144a4:	000e0513          	mv	a0,t3
   144a8:	37c020ef          	jal	ra,16824 <__mulsi3>
   144ac:	00050713          	mv	a4,a0
   144b0:	00078593          	mv	a1,a5
   144b4:	000f8513          	mv	a0,t6
   144b8:	36c020ef          	jal	ra,16824 <__mulsi3>
   144bc:	00050913          	mv	s2,a0
   144c0:	00028593          	mv	a1,t0
   144c4:	000f8513          	mv	a0,t6
   144c8:	35c020ef          	jal	ra,16824 <__mulsi3>
   144cc:	010ed313          	srli	t1,t4,0x10
   144d0:	01270733          	add	a4,a4,s2
   144d4:	00e30333          	add	t1,t1,a4
   144d8:	00050f13          	mv	t5,a0
   144dc:	01237463          	bgeu	t1,s2,144e4 <__muldf3+0x150>
   144e0:	01450f33          	add	t5,a0,s4
   144e4:	01035913          	srli	s2,t1,0x10
   144e8:	00737333          	and	t1,t1,t2
   144ec:	007efeb3          	and	t4,t4,t2
   144f0:	01031313          	slli	t1,t1,0x10
   144f4:	007473b3          	and	t2,s0,t2
   144f8:	01d30333          	add	t1,t1,t4
   144fc:	01045a13          	srli	s4,s0,0x10
   14500:	000e0513          	mv	a0,t3
   14504:	00038593          	mv	a1,t2
   14508:	31c020ef          	jal	ra,16824 <__mulsi3>
   1450c:	00050e93          	mv	t4,a0
   14510:	000a0593          	mv	a1,s4
   14514:	000e0513          	mv	a0,t3
   14518:	30c020ef          	jal	ra,16824 <__mulsi3>
   1451c:	00050e13          	mv	t3,a0
   14520:	00038593          	mv	a1,t2
   14524:	000f8513          	mv	a0,t6
   14528:	2fc020ef          	jal	ra,16824 <__mulsi3>
   1452c:	00050413          	mv	s0,a0
   14530:	000a0593          	mv	a1,s4
   14534:	000f8513          	mv	a0,t6
   14538:	2ec020ef          	jal	ra,16824 <__mulsi3>
   1453c:	010ed713          	srli	a4,t4,0x10
   14540:	008e0e33          	add	t3,t3,s0
   14544:	01c70733          	add	a4,a4,t3
   14548:	00050693          	mv	a3,a0
   1454c:	00877663          	bgeu	a4,s0,14558 <__muldf3+0x1c4>
   14550:	00010637          	lui	a2,0x10
   14554:	00c506b3          	add	a3,a0,a2
   14558:	00010b37          	lui	s6,0x10
   1455c:	fffb0e13          	addi	t3,s6,-1 # ffff <exit-0xb5>
   14560:	01075f93          	srli	t6,a4,0x10
   14564:	01c77733          	and	a4,a4,t3
   14568:	01071713          	slli	a4,a4,0x10
   1456c:	01cefeb3          	and	t4,t4,t3
   14570:	01d70eb3          	add	t4,a4,t4
   14574:	01c4fe33          	and	t3,s1,t3
   14578:	00df8fb3          	add	t6,t6,a3
   1457c:	01d90933          	add	s2,s2,t4
   14580:	0104da93          	srli	s5,s1,0x10
   14584:	000e0513          	mv	a0,t3
   14588:	00078593          	mv	a1,a5
   1458c:	298020ef          	jal	ra,16824 <__mulsi3>
   14590:	00050413          	mv	s0,a0
   14594:	00028593          	mv	a1,t0
   14598:	000e0513          	mv	a0,t3
   1459c:	288020ef          	jal	ra,16824 <__mulsi3>
   145a0:	00050493          	mv	s1,a0
   145a4:	00078593          	mv	a1,a5
   145a8:	000a8513          	mv	a0,s5
   145ac:	278020ef          	jal	ra,16824 <__mulsi3>
   145b0:	00050b93          	mv	s7,a0
   145b4:	00028593          	mv	a1,t0
   145b8:	000a8513          	mv	a0,s5
   145bc:	268020ef          	jal	ra,16824 <__mulsi3>
   145c0:	01045793          	srli	a5,s0,0x10
   145c4:	017484b3          	add	s1,s1,s7
   145c8:	009787b3          	add	a5,a5,s1
   145cc:	00050713          	mv	a4,a0
   145d0:	0177f463          	bgeu	a5,s7,145d8 <__muldf3+0x244>
   145d4:	01650733          	add	a4,a0,s6
   145d8:	000104b7          	lui	s1,0x10
   145dc:	fff48693          	addi	a3,s1,-1 # ffff <exit-0xb5>
   145e0:	0107d293          	srli	t0,a5,0x10
   145e4:	00e282b3          	add	t0,t0,a4
   145e8:	00d7f733          	and	a4,a5,a3
   145ec:	00d47433          	and	s0,s0,a3
   145f0:	01071713          	slli	a4,a4,0x10
   145f4:	00870733          	add	a4,a4,s0
   145f8:	000e0513          	mv	a0,t3
   145fc:	00038593          	mv	a1,t2
   14600:	224020ef          	jal	ra,16824 <__mulsi3>
   14604:	00050413          	mv	s0,a0
   14608:	000a0593          	mv	a1,s4
   1460c:	000e0513          	mv	a0,t3
   14610:	214020ef          	jal	ra,16824 <__mulsi3>
   14614:	00050e13          	mv	t3,a0
   14618:	00038593          	mv	a1,t2
   1461c:	000a8513          	mv	a0,s5
   14620:	204020ef          	jal	ra,16824 <__mulsi3>
   14624:	00050393          	mv	t2,a0
   14628:	000a0593          	mv	a1,s4
   1462c:	000a8513          	mv	a0,s5
   14630:	1f4020ef          	jal	ra,16824 <__mulsi3>
   14634:	01045793          	srli	a5,s0,0x10
   14638:	007e0e33          	add	t3,t3,t2
   1463c:	01c78e33          	add	t3,a5,t3
   14640:	00050593          	mv	a1,a0
   14644:	007e7463          	bgeu	t3,t2,1464c <__muldf3+0x2b8>
   14648:	009505b3          	add	a1,a0,s1
   1464c:	000106b7          	lui	a3,0x10
   14650:	fff68693          	addi	a3,a3,-1 # ffff <exit-0xb5>
   14654:	00de77b3          	and	a5,t3,a3
   14658:	00d47433          	and	s0,s0,a3
   1465c:	01079793          	slli	a5,a5,0x10
   14660:	012f0f33          	add	t5,t5,s2
   14664:	008787b3          	add	a5,a5,s0
   14668:	01df3eb3          	sltu	t4,t5,t4
   1466c:	01f787b3          	add	a5,a5,t6
   14670:	01d78533          	add	a0,a5,t4
   14674:	00ef0f33          	add	t5,t5,a4
   14678:	00ef3733          	sltu	a4,t5,a4
   1467c:	005506b3          	add	a3,a0,t0
   14680:	00e68633          	add	a2,a3,a4
   14684:	01f7b433          	sltu	s0,a5,t6
   14688:	01d53533          	sltu	a0,a0,t4
   1468c:	010e5793          	srli	a5,t3,0x10
   14690:	00e63733          	sltu	a4,a2,a4
   14694:	00a46433          	or	s0,s0,a0
   14698:	0056b6b3          	sltu	a3,a3,t0
   1469c:	00f40433          	add	s0,s0,a5
   146a0:	00e6e6b3          	or	a3,a3,a4
   146a4:	00d40433          	add	s0,s0,a3
   146a8:	00b40433          	add	s0,s0,a1
   146ac:	01765793          	srli	a5,a2,0x17
   146b0:	00941413          	slli	s0,s0,0x9
   146b4:	00f46433          	or	s0,s0,a5
   146b8:	009f1793          	slli	a5,t5,0x9
   146bc:	0067e7b3          	or	a5,a5,t1
   146c0:	00f037b3          	snez	a5,a5
   146c4:	017f5f13          	srli	t5,t5,0x17
   146c8:	00961713          	slli	a4,a2,0x9
   146cc:	01e7e7b3          	or	a5,a5,t5
   146d0:	00e7e7b3          	or	a5,a5,a4
   146d4:	01000737          	lui	a4,0x1000
   146d8:	00e47733          	and	a4,s0,a4
   146dc:	28070663          	beqz	a4,14968 <__muldf3+0x5d4>
   146e0:	0017d713          	srli	a4,a5,0x1
   146e4:	0017f793          	andi	a5,a5,1
   146e8:	00f76733          	or	a4,a4,a5
   146ec:	01f41793          	slli	a5,s0,0x1f
   146f0:	00f767b3          	or	a5,a4,a5
   146f4:	00145413          	srli	s0,s0,0x1
   146f8:	3ff88693          	addi	a3,a7,1023 # 8003ff <__BSS_END__+0x7be29b>
   146fc:	26d05a63          	blez	a3,14970 <__muldf3+0x5dc>
   14700:	0077f713          	andi	a4,a5,7
   14704:	02070063          	beqz	a4,14724 <__muldf3+0x390>
   14708:	00f7f713          	andi	a4,a5,15
   1470c:	00400613          	li	a2,4
   14710:	00c70a63          	beq	a4,a2,14724 <__muldf3+0x390>
   14714:	00478713          	addi	a4,a5,4 # 400004 <__BSS_END__+0x3bdea0>
   14718:	00f737b3          	sltu	a5,a4,a5
   1471c:	00f40433          	add	s0,s0,a5
   14720:	00070793          	mv	a5,a4
   14724:	01000737          	lui	a4,0x1000
   14728:	00e47733          	and	a4,s0,a4
   1472c:	00070a63          	beqz	a4,14740 <__muldf3+0x3ac>
   14730:	ff000737          	lui	a4,0xff000
   14734:	fff70713          	addi	a4,a4,-1 # feffffff <__BSS_END__+0xfefbde9b>
   14738:	00e47433          	and	s0,s0,a4
   1473c:	40088693          	addi	a3,a7,1024
   14740:	7fe00713          	li	a4,2046
   14744:	2ed74e63          	blt	a4,a3,14a40 <__muldf3+0x6ac>
   14748:	01d41713          	slli	a4,s0,0x1d
   1474c:	0037d793          	srli	a5,a5,0x3
   14750:	00f76733          	or	a4,a4,a5
   14754:	00345413          	srli	s0,s0,0x3
   14758:	7ff007b7          	lui	a5,0x7ff00
   1475c:	01469693          	slli	a3,a3,0x14
   14760:	00c41413          	slli	s0,s0,0xc
   14764:	00f6f6b3          	and	a3,a3,a5
   14768:	00c45413          	srli	s0,s0,0xc
   1476c:	02c12083          	lw	ra,44(sp)
   14770:	0086e6b3          	or	a3,a3,s0
   14774:	02812403          	lw	s0,40(sp)
   14778:	01f81813          	slli	a6,a6,0x1f
   1477c:	0106e7b3          	or	a5,a3,a6
   14780:	02412483          	lw	s1,36(sp)
   14784:	02012903          	lw	s2,32(sp)
   14788:	01c12983          	lw	s3,28(sp)
   1478c:	01812a03          	lw	s4,24(sp)
   14790:	01412a83          	lw	s5,20(sp)
   14794:	01012b03          	lw	s6,16(sp)
   14798:	00c12b83          	lw	s7,12(sp)
   1479c:	00070513          	mv	a0,a4
   147a0:	00078593          	mv	a1,a5
   147a4:	03010113          	addi	sp,sp,48
   147a8:	00008067          	ret
   147ac:	00a4e933          	or	s2,s1,a0
   147b0:	06090c63          	beqz	s2,14828 <__muldf3+0x494>
   147b4:	04048063          	beqz	s1,147f4 <__muldf3+0x460>
   147b8:	00048513          	mv	a0,s1
   147bc:	240020ef          	jal	ra,169fc <__clzsi2>
   147c0:	ff550713          	addi	a4,a0,-11
   147c4:	01c00793          	li	a5,28
   147c8:	02e7cc63          	blt	a5,a4,14800 <__muldf3+0x46c>
   147cc:	01d00793          	li	a5,29
   147d0:	ff850913          	addi	s2,a0,-8
   147d4:	40e787b3          	sub	a5,a5,a4
   147d8:	012494b3          	sll	s1,s1,s2
   147dc:	00f457b3          	srl	a5,s0,a5
   147e0:	0097e4b3          	or	s1,a5,s1
   147e4:	01241933          	sll	s2,s0,s2
   147e8:	c0d00993          	li	s3,-1011
   147ec:	40a989b3          	sub	s3,s3,a0
   147f0:	c15ff06f          	j	14404 <__muldf3+0x70>
   147f4:	208020ef          	jal	ra,169fc <__clzsi2>
   147f8:	02050513          	addi	a0,a0,32
   147fc:	fc5ff06f          	j	147c0 <__muldf3+0x42c>
   14800:	fd850493          	addi	s1,a0,-40
   14804:	009414b3          	sll	s1,s0,s1
   14808:	00000913          	li	s2,0
   1480c:	fddff06f          	j	147e8 <__muldf3+0x454>
   14810:	00a4e933          	or	s2,s1,a0
   14814:	02090263          	beqz	s2,14838 <__muldf3+0x4a4>
   14818:	00050913          	mv	s2,a0
   1481c:	7ff00993          	li	s3,2047
   14820:	00300b13          	li	s6,3
   14824:	be5ff06f          	j	14408 <__muldf3+0x74>
   14828:	00000493          	li	s1,0
   1482c:	00000993          	li	s3,0
   14830:	00100b13          	li	s6,1
   14834:	bd5ff06f          	j	14408 <__muldf3+0x74>
   14838:	00000493          	li	s1,0
   1483c:	7ff00993          	li	s3,2047
   14840:	00200b13          	li	s6,2
   14844:	bc5ff06f          	j	14408 <__muldf3+0x74>
   14848:	017467b3          	or	a5,s0,s7
   1484c:	06078e63          	beqz	a5,148c8 <__muldf3+0x534>
   14850:	04040063          	beqz	s0,14890 <__muldf3+0x4fc>
   14854:	00040513          	mv	a0,s0
   14858:	1a4020ef          	jal	ra,169fc <__clzsi2>
   1485c:	ff550693          	addi	a3,a0,-11
   14860:	01c00793          	li	a5,28
   14864:	02d7ce63          	blt	a5,a3,148a0 <__muldf3+0x50c>
   14868:	01d00713          	li	a4,29
   1486c:	ff850793          	addi	a5,a0,-8
   14870:	40d70733          	sub	a4,a4,a3
   14874:	00f41433          	sll	s0,s0,a5
   14878:	00ebd733          	srl	a4,s7,a4
   1487c:	00876433          	or	s0,a4,s0
   14880:	00fb97b3          	sll	a5,s7,a5
   14884:	c0d00713          	li	a4,-1011
   14888:	40a70733          	sub	a4,a4,a0
   1488c:	bb9ff06f          	j	14444 <__muldf3+0xb0>
   14890:	000b8513          	mv	a0,s7
   14894:	168020ef          	jal	ra,169fc <__clzsi2>
   14898:	02050513          	addi	a0,a0,32
   1489c:	fc1ff06f          	j	1485c <__muldf3+0x4c8>
   148a0:	fd850413          	addi	s0,a0,-40
   148a4:	008b9433          	sll	s0,s7,s0
   148a8:	00000793          	li	a5,0
   148ac:	fd9ff06f          	j	14884 <__muldf3+0x4f0>
   148b0:	017467b3          	or	a5,s0,s7
   148b4:	02078263          	beqz	a5,148d8 <__muldf3+0x544>
   148b8:	000b8793          	mv	a5,s7
   148bc:	7ff00713          	li	a4,2047
   148c0:	00300613          	li	a2,3
   148c4:	b85ff06f          	j	14448 <__muldf3+0xb4>
   148c8:	00000413          	li	s0,0
   148cc:	00000713          	li	a4,0
   148d0:	00100613          	li	a2,1
   148d4:	b75ff06f          	j	14448 <__muldf3+0xb4>
   148d8:	00000413          	li	s0,0
   148dc:	7ff00713          	li	a4,2047
   148e0:	00200613          	li	a2,2
   148e4:	b65ff06f          	j	14448 <__muldf3+0xb4>
   148e8:	00100693          	li	a3,1
   148ec:	00e696b3          	sll	a3,a3,a4
   148f0:	5306f713          	andi	a4,a3,1328
   148f4:	04071863          	bnez	a4,14944 <__muldf3+0x5b0>
   148f8:	2406f593          	andi	a1,a3,576
   148fc:	12059463          	bnez	a1,14a24 <__muldf3+0x690>
   14900:	0886f693          	andi	a3,a3,136
   14904:	b6068ae3          	beqz	a3,14478 <__muldf3+0xe4>
   14908:	000a0813          	mv	a6,s4
   1490c:	00200713          	li	a4,2
   14910:	12e60863          	beq	a2,a4,14a40 <__muldf3+0x6ac>
   14914:	00300713          	li	a4,3
   14918:	10e60e63          	beq	a2,a4,14a34 <__muldf3+0x6a0>
   1491c:	00100713          	li	a4,1
   14920:	dce61ce3          	bne	a2,a4,146f8 <__muldf3+0x364>
   14924:	00000413          	li	s0,0
   14928:	00000713          	li	a4,0
   1492c:	0bc0006f          	j	149e8 <__muldf3+0x654>
   14930:	00f00693          	li	a3,15
   14934:	02d70063          	beq	a4,a3,14954 <__muldf3+0x5c0>
   14938:	00b00693          	li	a3,11
   1493c:	fcd706e3          	beq	a4,a3,14908 <__muldf3+0x574>
   14940:	000a8813          	mv	a6,s5
   14944:	00048413          	mv	s0,s1
   14948:	00090793          	mv	a5,s2
   1494c:	000b0613          	mv	a2,s6
   14950:	fbdff06f          	j	1490c <__muldf3+0x578>
   14954:	00080437          	lui	s0,0x80
   14958:	00000793          	li	a5,0
   1495c:	00000813          	li	a6,0
   14960:	00300613          	li	a2,3
   14964:	fb1ff06f          	j	14914 <__muldf3+0x580>
   14968:	00098893          	mv	a7,s3
   1496c:	d8dff06f          	j	146f8 <__muldf3+0x364>
   14970:	00100613          	li	a2,1
   14974:	40d60633          	sub	a2,a2,a3
   14978:	03800713          	li	a4,56
   1497c:	fac744e3          	blt	a4,a2,14924 <__muldf3+0x590>
   14980:	01f00713          	li	a4,31
   14984:	06c74663          	blt	a4,a2,149f0 <__muldf3+0x65c>
   14988:	41e88893          	addi	a7,a7,1054
   1498c:	01141733          	sll	a4,s0,a7
   14990:	00c7d6b3          	srl	a3,a5,a2
   14994:	011798b3          	sll	a7,a5,a7
   14998:	00d76733          	or	a4,a4,a3
   1499c:	011038b3          	snez	a7,a7
   149a0:	011767b3          	or	a5,a4,a7
   149a4:	00c45433          	srl	s0,s0,a2
   149a8:	0077f713          	andi	a4,a5,7
   149ac:	02070063          	beqz	a4,149cc <__muldf3+0x638>
   149b0:	00f7f713          	andi	a4,a5,15
   149b4:	00400693          	li	a3,4
   149b8:	00d70a63          	beq	a4,a3,149cc <__muldf3+0x638>
   149bc:	00478713          	addi	a4,a5,4 # 7ff00004 <__BSS_END__+0x7febdea0>
   149c0:	00f737b3          	sltu	a5,a4,a5
   149c4:	00f40433          	add	s0,s0,a5
   149c8:	00070793          	mv	a5,a4
   149cc:	00800737          	lui	a4,0x800
   149d0:	00e47733          	and	a4,s0,a4
   149d4:	06071e63          	bnez	a4,14a50 <__muldf3+0x6bc>
   149d8:	01d41713          	slli	a4,s0,0x1d
   149dc:	0037d793          	srli	a5,a5,0x3
   149e0:	00f76733          	or	a4,a4,a5
   149e4:	00345413          	srli	s0,s0,0x3
   149e8:	00000693          	li	a3,0
   149ec:	d6dff06f          	j	14758 <__muldf3+0x3c4>
   149f0:	fe100713          	li	a4,-31
   149f4:	40d70733          	sub	a4,a4,a3
   149f8:	02000593          	li	a1,32
   149fc:	00e45733          	srl	a4,s0,a4
   14a00:	00000693          	li	a3,0
   14a04:	00b60663          	beq	a2,a1,14a10 <__muldf3+0x67c>
   14a08:	43e88893          	addi	a7,a7,1086
   14a0c:	011416b3          	sll	a3,s0,a7
   14a10:	00f6e6b3          	or	a3,a3,a5
   14a14:	00d036b3          	snez	a3,a3
   14a18:	00d767b3          	or	a5,a4,a3
   14a1c:	00000413          	li	s0,0
   14a20:	f89ff06f          	j	149a8 <__muldf3+0x614>
   14a24:	00080437          	lui	s0,0x80
   14a28:	7ff00693          	li	a3,2047
   14a2c:	00000813          	li	a6,0
   14a30:	d29ff06f          	j	14758 <__muldf3+0x3c4>
   14a34:	00080437          	lui	s0,0x80
   14a38:	00000713          	li	a4,0
   14a3c:	fedff06f          	j	14a28 <__muldf3+0x694>
   14a40:	00000413          	li	s0,0
   14a44:	00000713          	li	a4,0
   14a48:	7ff00693          	li	a3,2047
   14a4c:	d0dff06f          	j	14758 <__muldf3+0x3c4>
   14a50:	00000413          	li	s0,0
   14a54:	00000713          	li	a4,0
   14a58:	00100693          	li	a3,1
   14a5c:	cfdff06f          	j	14758 <__muldf3+0x3c4>

00014a60 <__subdf3>:
   14a60:	00100837          	lui	a6,0x100
   14a64:	fff80813          	addi	a6,a6,-1 # fffff <__BSS_END__+0xbde9b>
   14a68:	fe010113          	addi	sp,sp,-32
   14a6c:	00b878b3          	and	a7,a6,a1
   14a70:	0145d713          	srli	a4,a1,0x14
   14a74:	01d55793          	srli	a5,a0,0x1d
   14a78:	00d87833          	and	a6,a6,a3
   14a7c:	00812c23          	sw	s0,24(sp)
   14a80:	7ff77413          	andi	s0,a4,2047
   14a84:	00389713          	slli	a4,a7,0x3
   14a88:	0146d893          	srli	a7,a3,0x14
   14a8c:	00912a23          	sw	s1,20(sp)
   14a90:	00e7e7b3          	or	a5,a5,a4
   14a94:	01f5d493          	srli	s1,a1,0x1f
   14a98:	01d65713          	srli	a4,a2,0x1d
   14a9c:	00381813          	slli	a6,a6,0x3
   14aa0:	00112e23          	sw	ra,28(sp)
   14aa4:	01212823          	sw	s2,16(sp)
   14aa8:	01312623          	sw	s3,12(sp)
   14aac:	7ff8f893          	andi	a7,a7,2047
   14ab0:	7ff00593          	li	a1,2047
   14ab4:	00351513          	slli	a0,a0,0x3
   14ab8:	01f6d693          	srli	a3,a3,0x1f
   14abc:	01076733          	or	a4,a4,a6
   14ac0:	00361613          	slli	a2,a2,0x3
   14ac4:	00b89663          	bne	a7,a1,14ad0 <__subdf3+0x70>
   14ac8:	00c765b3          	or	a1,a4,a2
   14acc:	00059463          	bnez	a1,14ad4 <__subdf3+0x74>
   14ad0:	0016c693          	xori	a3,a3,1
   14ad4:	41140833          	sub	a6,s0,a7
   14ad8:	2c969863          	bne	a3,s1,14da8 <__subdf3+0x348>
   14adc:	13005063          	blez	a6,14bfc <__subdf3+0x19c>
   14ae0:	04089063          	bnez	a7,14b20 <__subdf3+0xc0>
   14ae4:	00c766b3          	or	a3,a4,a2
   14ae8:	70068e63          	beqz	a3,15204 <__subdf3+0x7a4>
   14aec:	fff80593          	addi	a1,a6,-1
   14af0:	02059063          	bnez	a1,14b10 <__subdf3+0xb0>
   14af4:	00c50633          	add	a2,a0,a2
   14af8:	00e78733          	add	a4,a5,a4
   14afc:	00a637b3          	sltu	a5,a2,a0
   14b00:	00f707b3          	add	a5,a4,a5
   14b04:	00060513          	mv	a0,a2
   14b08:	00100413          	li	s0,1
   14b0c:	0700006f          	j	14b7c <__subdf3+0x11c>
   14b10:	7ff00693          	li	a3,2047
   14b14:	02d81063          	bne	a6,a3,14b34 <__subdf3+0xd4>
   14b18:	7ff00413          	li	s0,2047
   14b1c:	2140006f          	j	14d30 <__subdf3+0x2d0>
   14b20:	7ff00693          	li	a3,2047
   14b24:	20d40663          	beq	s0,a3,14d30 <__subdf3+0x2d0>
   14b28:	008006b7          	lui	a3,0x800
   14b2c:	00d76733          	or	a4,a4,a3
   14b30:	00080593          	mv	a1,a6
   14b34:	03800693          	li	a3,56
   14b38:	0ab6cc63          	blt	a3,a1,14bf0 <__subdf3+0x190>
   14b3c:	01f00693          	li	a3,31
   14b40:	06b6ce63          	blt	a3,a1,14bbc <__subdf3+0x15c>
   14b44:	02000813          	li	a6,32
   14b48:	40b80833          	sub	a6,a6,a1
   14b4c:	010716b3          	sll	a3,a4,a6
   14b50:	00b658b3          	srl	a7,a2,a1
   14b54:	01061833          	sll	a6,a2,a6
   14b58:	0116e6b3          	or	a3,a3,a7
   14b5c:	01003833          	snez	a6,a6
   14b60:	0106e6b3          	or	a3,a3,a6
   14b64:	00b755b3          	srl	a1,a4,a1
   14b68:	00a686b3          	add	a3,a3,a0
   14b6c:	00f585b3          	add	a1,a1,a5
   14b70:	00a6b7b3          	sltu	a5,a3,a0
   14b74:	00f587b3          	add	a5,a1,a5
   14b78:	00068513          	mv	a0,a3
   14b7c:	00800737          	lui	a4,0x800
   14b80:	00e7f733          	and	a4,a5,a4
   14b84:	1a070663          	beqz	a4,14d30 <__subdf3+0x2d0>
   14b88:	00140413          	addi	s0,s0,1 # 80001 <__BSS_END__+0x3de9d>
   14b8c:	7ff00713          	li	a4,2047
   14b90:	5ce40a63          	beq	s0,a4,15164 <__subdf3+0x704>
   14b94:	ff800737          	lui	a4,0xff800
   14b98:	fff70713          	addi	a4,a4,-1 # ff7fffff <__BSS_END__+0xff7bde9b>
   14b9c:	00e7f7b3          	and	a5,a5,a4
   14ba0:	00155713          	srli	a4,a0,0x1
   14ba4:	00157513          	andi	a0,a0,1
   14ba8:	00a76733          	or	a4,a4,a0
   14bac:	01f79513          	slli	a0,a5,0x1f
   14bb0:	00e56533          	or	a0,a0,a4
   14bb4:	0017d793          	srli	a5,a5,0x1
   14bb8:	1780006f          	j	14d30 <__subdf3+0x2d0>
   14bbc:	fe058693          	addi	a3,a1,-32 # 7fffe0 <__BSS_END__+0x7bde7c>
   14bc0:	02000893          	li	a7,32
   14bc4:	00d756b3          	srl	a3,a4,a3
   14bc8:	00000813          	li	a6,0
   14bcc:	01158863          	beq	a1,a7,14bdc <__subdf3+0x17c>
   14bd0:	04000813          	li	a6,64
   14bd4:	40b80833          	sub	a6,a6,a1
   14bd8:	01071833          	sll	a6,a4,a6
   14bdc:	00c86833          	or	a6,a6,a2
   14be0:	01003833          	snez	a6,a6
   14be4:	0106e6b3          	or	a3,a3,a6
   14be8:	00000593          	li	a1,0
   14bec:	f7dff06f          	j	14b68 <__subdf3+0x108>
   14bf0:	00c766b3          	or	a3,a4,a2
   14bf4:	00d036b3          	snez	a3,a3
   14bf8:	ff1ff06f          	j	14be8 <__subdf3+0x188>
   14bfc:	0e080263          	beqz	a6,14ce0 <__subdf3+0x280>
   14c00:	408885b3          	sub	a1,a7,s0
   14c04:	02041e63          	bnez	s0,14c40 <__subdf3+0x1e0>
   14c08:	00a7e6b3          	or	a3,a5,a0
   14c0c:	52068c63          	beqz	a3,15144 <__subdf3+0x6e4>
   14c10:	fff58693          	addi	a3,a1,-1
   14c14:	00069c63          	bnez	a3,14c2c <__subdf3+0x1cc>
   14c18:	00c50533          	add	a0,a0,a2
   14c1c:	00e78733          	add	a4,a5,a4
   14c20:	00c53633          	sltu	a2,a0,a2
   14c24:	00c707b3          	add	a5,a4,a2
   14c28:	ee1ff06f          	j	14b08 <__subdf3+0xa8>
   14c2c:	7ff00813          	li	a6,2047
   14c30:	03059263          	bne	a1,a6,14c54 <__subdf3+0x1f4>
   14c34:	00070793          	mv	a5,a4
   14c38:	00060513          	mv	a0,a2
   14c3c:	eddff06f          	j	14b18 <__subdf3+0xb8>
   14c40:	7ff00693          	li	a3,2047
   14c44:	fed888e3          	beq	a7,a3,14c34 <__subdf3+0x1d4>
   14c48:	008006b7          	lui	a3,0x800
   14c4c:	00d7e7b3          	or	a5,a5,a3
   14c50:	00058693          	mv	a3,a1
   14c54:	03800593          	li	a1,56
   14c58:	06d5ce63          	blt	a1,a3,14cd4 <__subdf3+0x274>
   14c5c:	01f00593          	li	a1,31
   14c60:	04d5c063          	blt	a1,a3,14ca0 <__subdf3+0x240>
   14c64:	02000813          	li	a6,32
   14c68:	40d80833          	sub	a6,a6,a3
   14c6c:	010795b3          	sll	a1,a5,a6
   14c70:	00d55333          	srl	t1,a0,a3
   14c74:	01051833          	sll	a6,a0,a6
   14c78:	0065e5b3          	or	a1,a1,t1
   14c7c:	01003833          	snez	a6,a6
   14c80:	0105e5b3          	or	a1,a1,a6
   14c84:	00d7d6b3          	srl	a3,a5,a3
   14c88:	00c58533          	add	a0,a1,a2
   14c8c:	00e686b3          	add	a3,a3,a4
   14c90:	00c53633          	sltu	a2,a0,a2
   14c94:	00c687b3          	add	a5,a3,a2
   14c98:	00088413          	mv	s0,a7
   14c9c:	ee1ff06f          	j	14b7c <__subdf3+0x11c>
   14ca0:	fe068593          	addi	a1,a3,-32 # 7fffe0 <__BSS_END__+0x7bde7c>
   14ca4:	02000313          	li	t1,32
   14ca8:	00b7d5b3          	srl	a1,a5,a1
   14cac:	00000813          	li	a6,0
   14cb0:	00668863          	beq	a3,t1,14cc0 <__subdf3+0x260>
   14cb4:	04000813          	li	a6,64
   14cb8:	40d80833          	sub	a6,a6,a3
   14cbc:	01079833          	sll	a6,a5,a6
   14cc0:	00a86833          	or	a6,a6,a0
   14cc4:	01003833          	snez	a6,a6
   14cc8:	0105e5b3          	or	a1,a1,a6
   14ccc:	00000693          	li	a3,0
   14cd0:	fb9ff06f          	j	14c88 <__subdf3+0x228>
   14cd4:	00a7e5b3          	or	a1,a5,a0
   14cd8:	00b035b3          	snez	a1,a1
   14cdc:	ff1ff06f          	j	14ccc <__subdf3+0x26c>
   14ce0:	00140693          	addi	a3,s0,1
   14ce4:	7fe6f593          	andi	a1,a3,2046
   14ce8:	08059863          	bnez	a1,14d78 <__subdf3+0x318>
   14cec:	00a7e6b3          	or	a3,a5,a0
   14cf0:	06041463          	bnez	s0,14d58 <__subdf3+0x2f8>
   14cf4:	46068063          	beqz	a3,15154 <__subdf3+0x6f4>
   14cf8:	00c766b3          	or	a3,a4,a2
   14cfc:	02068a63          	beqz	a3,14d30 <__subdf3+0x2d0>
   14d00:	00c50633          	add	a2,a0,a2
   14d04:	00e78733          	add	a4,a5,a4
   14d08:	00a637b3          	sltu	a5,a2,a0
   14d0c:	00f707b3          	add	a5,a4,a5
   14d10:	00800737          	lui	a4,0x800
   14d14:	00e7f733          	and	a4,a5,a4
   14d18:	00060513          	mv	a0,a2
   14d1c:	00070a63          	beqz	a4,14d30 <__subdf3+0x2d0>
   14d20:	ff800737          	lui	a4,0xff800
   14d24:	fff70713          	addi	a4,a4,-1 # ff7fffff <__BSS_END__+0xff7bde9b>
   14d28:	00e7f7b3          	and	a5,a5,a4
   14d2c:	00100413          	li	s0,1
   14d30:	00757713          	andi	a4,a0,7
   14d34:	42070c63          	beqz	a4,1516c <__subdf3+0x70c>
   14d38:	00f57713          	andi	a4,a0,15
   14d3c:	00400693          	li	a3,4
   14d40:	42d70663          	beq	a4,a3,1516c <__subdf3+0x70c>
   14d44:	00450713          	addi	a4,a0,4
   14d48:	00a73533          	sltu	a0,a4,a0
   14d4c:	00a787b3          	add	a5,a5,a0
   14d50:	00070513          	mv	a0,a4
   14d54:	4180006f          	j	1516c <__subdf3+0x70c>
   14d58:	ec068ee3          	beqz	a3,14c34 <__subdf3+0x1d4>
   14d5c:	00c76733          	or	a4,a4,a2
   14d60:	da070ce3          	beqz	a4,14b18 <__subdf3+0xb8>
   14d64:	00000493          	li	s1,0
   14d68:	004007b7          	lui	a5,0x400
   14d6c:	00000513          	li	a0,0
   14d70:	7ff00413          	li	s0,2047
   14d74:	3f80006f          	j	1516c <__subdf3+0x70c>
   14d78:	7ff00593          	li	a1,2047
   14d7c:	3eb68263          	beq	a3,a1,15160 <__subdf3+0x700>
   14d80:	00c50633          	add	a2,a0,a2
   14d84:	00a63533          	sltu	a0,a2,a0
   14d88:	00e78733          	add	a4,a5,a4
   14d8c:	00a70733          	add	a4,a4,a0
   14d90:	01f71513          	slli	a0,a4,0x1f
   14d94:	00165613          	srli	a2,a2,0x1
   14d98:	00c56533          	or	a0,a0,a2
   14d9c:	00175793          	srli	a5,a4,0x1
   14da0:	00068413          	mv	s0,a3
   14da4:	f8dff06f          	j	14d30 <__subdf3+0x2d0>
   14da8:	0f005c63          	blez	a6,14ea0 <__subdf3+0x440>
   14dac:	08089e63          	bnez	a7,14e48 <__subdf3+0x3e8>
   14db0:	00c766b3          	or	a3,a4,a2
   14db4:	44068863          	beqz	a3,15204 <__subdf3+0x7a4>
   14db8:	fff80593          	addi	a1,a6,-1
   14dbc:	02059063          	bnez	a1,14ddc <__subdf3+0x37c>
   14dc0:	40c50633          	sub	a2,a0,a2
   14dc4:	40e78733          	sub	a4,a5,a4
   14dc8:	00c537b3          	sltu	a5,a0,a2
   14dcc:	40f707b3          	sub	a5,a4,a5
   14dd0:	00060513          	mv	a0,a2
   14dd4:	00100413          	li	s0,1
   14dd8:	0540006f          	j	14e2c <__subdf3+0x3cc>
   14ddc:	7ff00693          	li	a3,2047
   14de0:	d2d80ce3          	beq	a6,a3,14b18 <__subdf3+0xb8>
   14de4:	03800693          	li	a3,56
   14de8:	0ab6c663          	blt	a3,a1,14e94 <__subdf3+0x434>
   14dec:	01f00693          	li	a3,31
   14df0:	06b6c863          	blt	a3,a1,14e60 <__subdf3+0x400>
   14df4:	02000813          	li	a6,32
   14df8:	40b80833          	sub	a6,a6,a1
   14dfc:	010716b3          	sll	a3,a4,a6
   14e00:	00b658b3          	srl	a7,a2,a1
   14e04:	01061833          	sll	a6,a2,a6
   14e08:	0116e6b3          	or	a3,a3,a7
   14e0c:	01003833          	snez	a6,a6
   14e10:	0106e6b3          	or	a3,a3,a6
   14e14:	00b755b3          	srl	a1,a4,a1
   14e18:	40d506b3          	sub	a3,a0,a3
   14e1c:	40b785b3          	sub	a1,a5,a1
   14e20:	00d537b3          	sltu	a5,a0,a3
   14e24:	40f587b3          	sub	a5,a1,a5
   14e28:	00068513          	mv	a0,a3
   14e2c:	00800937          	lui	s2,0x800
   14e30:	0127f733          	and	a4,a5,s2
   14e34:	ee070ee3          	beqz	a4,14d30 <__subdf3+0x2d0>
   14e38:	fff90913          	addi	s2,s2,-1 # 7fffff <__BSS_END__+0x7bde9b>
   14e3c:	0127f933          	and	s2,a5,s2
   14e40:	00050993          	mv	s3,a0
   14e44:	2140006f          	j	15058 <__subdf3+0x5f8>
   14e48:	7ff00693          	li	a3,2047
   14e4c:	eed402e3          	beq	s0,a3,14d30 <__subdf3+0x2d0>
   14e50:	008006b7          	lui	a3,0x800
   14e54:	00d76733          	or	a4,a4,a3
   14e58:	00080593          	mv	a1,a6
   14e5c:	f89ff06f          	j	14de4 <__subdf3+0x384>
   14e60:	fe058693          	addi	a3,a1,-32
   14e64:	02000893          	li	a7,32
   14e68:	00d756b3          	srl	a3,a4,a3
   14e6c:	00000813          	li	a6,0
   14e70:	01158863          	beq	a1,a7,14e80 <__subdf3+0x420>
   14e74:	04000813          	li	a6,64
   14e78:	40b80833          	sub	a6,a6,a1
   14e7c:	01071833          	sll	a6,a4,a6
   14e80:	00c86833          	or	a6,a6,a2
   14e84:	01003833          	snez	a6,a6
   14e88:	0106e6b3          	or	a3,a3,a6
   14e8c:	00000593          	li	a1,0
   14e90:	f89ff06f          	j	14e18 <__subdf3+0x3b8>
   14e94:	00c766b3          	or	a3,a4,a2
   14e98:	00d036b3          	snez	a3,a3
   14e9c:	ff1ff06f          	j	14e8c <__subdf3+0x42c>
   14ea0:	0e080863          	beqz	a6,14f90 <__subdf3+0x530>
   14ea4:	40888833          	sub	a6,a7,s0
   14ea8:	04041263          	bnez	s0,14eec <__subdf3+0x48c>
   14eac:	00a7e5b3          	or	a1,a5,a0
   14eb0:	34058e63          	beqz	a1,1520c <__subdf3+0x7ac>
   14eb4:	fff80593          	addi	a1,a6,-1
   14eb8:	00059e63          	bnez	a1,14ed4 <__subdf3+0x474>
   14ebc:	40a60533          	sub	a0,a2,a0
   14ec0:	40f70733          	sub	a4,a4,a5
   14ec4:	00a63633          	sltu	a2,a2,a0
   14ec8:	40c707b3          	sub	a5,a4,a2
   14ecc:	00068493          	mv	s1,a3
   14ed0:	f05ff06f          	j	14dd4 <__subdf3+0x374>
   14ed4:	7ff00313          	li	t1,2047
   14ed8:	02681463          	bne	a6,t1,14f00 <__subdf3+0x4a0>
   14edc:	00070793          	mv	a5,a4
   14ee0:	00060513          	mv	a0,a2
   14ee4:	7ff00413          	li	s0,2047
   14ee8:	0d00006f          	j	14fb8 <__subdf3+0x558>
   14eec:	7ff00593          	li	a1,2047
   14ef0:	feb886e3          	beq	a7,a1,14edc <__subdf3+0x47c>
   14ef4:	008005b7          	lui	a1,0x800
   14ef8:	00b7e7b3          	or	a5,a5,a1
   14efc:	00080593          	mv	a1,a6
   14f00:	03800813          	li	a6,56
   14f04:	08b84063          	blt	a6,a1,14f84 <__subdf3+0x524>
   14f08:	01f00813          	li	a6,31
   14f0c:	04b84263          	blt	a6,a1,14f50 <__subdf3+0x4f0>
   14f10:	02000313          	li	t1,32
   14f14:	40b30333          	sub	t1,t1,a1
   14f18:	00b55e33          	srl	t3,a0,a1
   14f1c:	00679833          	sll	a6,a5,t1
   14f20:	00651333          	sll	t1,a0,t1
   14f24:	01c86833          	or	a6,a6,t3
   14f28:	00603333          	snez	t1,t1
   14f2c:	00686533          	or	a0,a6,t1
   14f30:	00b7d5b3          	srl	a1,a5,a1
   14f34:	40a60533          	sub	a0,a2,a0
   14f38:	40b705b3          	sub	a1,a4,a1
   14f3c:	00a63633          	sltu	a2,a2,a0
   14f40:	40c587b3          	sub	a5,a1,a2
   14f44:	00088413          	mv	s0,a7
   14f48:	00068493          	mv	s1,a3
   14f4c:	ee1ff06f          	j	14e2c <__subdf3+0x3cc>
   14f50:	fe058813          	addi	a6,a1,-32 # 7fffe0 <__BSS_END__+0x7bde7c>
   14f54:	02000e13          	li	t3,32
   14f58:	0107d833          	srl	a6,a5,a6
   14f5c:	00000313          	li	t1,0
   14f60:	01c58863          	beq	a1,t3,14f70 <__subdf3+0x510>
   14f64:	04000313          	li	t1,64
   14f68:	40b30333          	sub	t1,t1,a1
   14f6c:	00679333          	sll	t1,a5,t1
   14f70:	00a36333          	or	t1,t1,a0
   14f74:	00603333          	snez	t1,t1
   14f78:	00686533          	or	a0,a6,t1
   14f7c:	00000593          	li	a1,0
   14f80:	fb5ff06f          	j	14f34 <__subdf3+0x4d4>
   14f84:	00a7e533          	or	a0,a5,a0
   14f88:	00a03533          	snez	a0,a0
   14f8c:	ff1ff06f          	j	14f7c <__subdf3+0x51c>
   14f90:	00140593          	addi	a1,s0,1
   14f94:	7fe5f593          	andi	a1,a1,2046
   14f98:	08059863          	bnez	a1,15028 <__subdf3+0x5c8>
   14f9c:	00c765b3          	or	a1,a4,a2
   14fa0:	00a7e833          	or	a6,a5,a0
   14fa4:	06041263          	bnez	s0,15008 <__subdf3+0x5a8>
   14fa8:	00081c63          	bnez	a6,14fc0 <__subdf3+0x560>
   14fac:	26058863          	beqz	a1,1521c <__subdf3+0x7bc>
   14fb0:	00070793          	mv	a5,a4
   14fb4:	00060513          	mv	a0,a2
   14fb8:	00068493          	mv	s1,a3
   14fbc:	d75ff06f          	j	14d30 <__subdf3+0x2d0>
   14fc0:	d60588e3          	beqz	a1,14d30 <__subdf3+0x2d0>
   14fc4:	40c50833          	sub	a6,a0,a2
   14fc8:	010538b3          	sltu	a7,a0,a6
   14fcc:	40e785b3          	sub	a1,a5,a4
   14fd0:	411585b3          	sub	a1,a1,a7
   14fd4:	008008b7          	lui	a7,0x800
   14fd8:	0115f8b3          	and	a7,a1,a7
   14fdc:	00088c63          	beqz	a7,14ff4 <__subdf3+0x594>
   14fe0:	40a60533          	sub	a0,a2,a0
   14fe4:	40f70733          	sub	a4,a4,a5
   14fe8:	00a63633          	sltu	a2,a2,a0
   14fec:	40c707b3          	sub	a5,a4,a2
   14ff0:	fc9ff06f          	j	14fb8 <__subdf3+0x558>
   14ff4:	00b86533          	or	a0,a6,a1
   14ff8:	22050a63          	beqz	a0,1522c <__subdf3+0x7cc>
   14ffc:	00058793          	mv	a5,a1
   15000:	00080513          	mv	a0,a6
   15004:	d2dff06f          	j	14d30 <__subdf3+0x2d0>
   15008:	00081c63          	bnez	a6,15020 <__subdf3+0x5c0>
   1500c:	22058463          	beqz	a1,15234 <__subdf3+0x7d4>
   15010:	00070793          	mv	a5,a4
   15014:	00060513          	mv	a0,a2
   15018:	00068493          	mv	s1,a3
   1501c:	afdff06f          	j	14b18 <__subdf3+0xb8>
   15020:	ae058ce3          	beqz	a1,14b18 <__subdf3+0xb8>
   15024:	d41ff06f          	j	14d64 <__subdf3+0x304>
   15028:	40c509b3          	sub	s3,a0,a2
   1502c:	013535b3          	sltu	a1,a0,s3
   15030:	40e78933          	sub	s2,a5,a4
   15034:	40b90933          	sub	s2,s2,a1
   15038:	008005b7          	lui	a1,0x800
   1503c:	00b975b3          	and	a1,s2,a1
   15040:	08058463          	beqz	a1,150c8 <__subdf3+0x668>
   15044:	40a609b3          	sub	s3,a2,a0
   15048:	40f70933          	sub	s2,a4,a5
   1504c:	01363633          	sltu	a2,a2,s3
   15050:	40c90933          	sub	s2,s2,a2
   15054:	00068493          	mv	s1,a3
   15058:	08090263          	beqz	s2,150dc <__subdf3+0x67c>
   1505c:	00090513          	mv	a0,s2
   15060:	19d010ef          	jal	ra,169fc <__clzsi2>
   15064:	ff850713          	addi	a4,a0,-8
   15068:	01f00793          	li	a5,31
   1506c:	08e7c063          	blt	a5,a4,150ec <__subdf3+0x68c>
   15070:	02000793          	li	a5,32
   15074:	40e787b3          	sub	a5,a5,a4
   15078:	00e91933          	sll	s2,s2,a4
   1507c:	00f9d7b3          	srl	a5,s3,a5
   15080:	0127e7b3          	or	a5,a5,s2
   15084:	00e99533          	sll	a0,s3,a4
   15088:	0a874463          	blt	a4,s0,15130 <__subdf3+0x6d0>
   1508c:	40870733          	sub	a4,a4,s0
   15090:	00170613          	addi	a2,a4,1
   15094:	01f00693          	li	a3,31
   15098:	06c6c263          	blt	a3,a2,150fc <__subdf3+0x69c>
   1509c:	02000713          	li	a4,32
   150a0:	40c70733          	sub	a4,a4,a2
   150a4:	00e796b3          	sll	a3,a5,a4
   150a8:	00c555b3          	srl	a1,a0,a2
   150ac:	00e51733          	sll	a4,a0,a4
   150b0:	00b6e6b3          	or	a3,a3,a1
   150b4:	00e03733          	snez	a4,a4
   150b8:	00e6e533          	or	a0,a3,a4
   150bc:	00c7d7b3          	srl	a5,a5,a2
   150c0:	00000413          	li	s0,0
   150c4:	c6dff06f          	j	14d30 <__subdf3+0x2d0>
   150c8:	0129e533          	or	a0,s3,s2
   150cc:	f80516e3          	bnez	a0,15058 <__subdf3+0x5f8>
   150d0:	00000793          	li	a5,0
   150d4:	00000413          	li	s0,0
   150d8:	14c0006f          	j	15224 <__subdf3+0x7c4>
   150dc:	00098513          	mv	a0,s3
   150e0:	11d010ef          	jal	ra,169fc <__clzsi2>
   150e4:	02050513          	addi	a0,a0,32
   150e8:	f7dff06f          	j	15064 <__subdf3+0x604>
   150ec:	fd850793          	addi	a5,a0,-40
   150f0:	00f997b3          	sll	a5,s3,a5
   150f4:	00000513          	li	a0,0
   150f8:	f91ff06f          	j	15088 <__subdf3+0x628>
   150fc:	fe170713          	addi	a4,a4,-31
   15100:	02000593          	li	a1,32
   15104:	00e7d733          	srl	a4,a5,a4
   15108:	00000693          	li	a3,0
   1510c:	00b60863          	beq	a2,a1,1511c <__subdf3+0x6bc>
   15110:	04000693          	li	a3,64
   15114:	40c686b3          	sub	a3,a3,a2
   15118:	00d796b3          	sll	a3,a5,a3
   1511c:	00d566b3          	or	a3,a0,a3
   15120:	00d036b3          	snez	a3,a3
   15124:	00d76533          	or	a0,a4,a3
   15128:	00000793          	li	a5,0
   1512c:	f95ff06f          	j	150c0 <__subdf3+0x660>
   15130:	40e40433          	sub	s0,s0,a4
   15134:	ff800737          	lui	a4,0xff800
   15138:	fff70713          	addi	a4,a4,-1 # ff7fffff <__BSS_END__+0xff7bde9b>
   1513c:	00e7f7b3          	and	a5,a5,a4
   15140:	bf1ff06f          	j	14d30 <__subdf3+0x2d0>
   15144:	00070793          	mv	a5,a4
   15148:	00060513          	mv	a0,a2
   1514c:	00058413          	mv	s0,a1
   15150:	be1ff06f          	j	14d30 <__subdf3+0x2d0>
   15154:	00070793          	mv	a5,a4
   15158:	00060513          	mv	a0,a2
   1515c:	bd5ff06f          	j	14d30 <__subdf3+0x2d0>
   15160:	7ff00413          	li	s0,2047
   15164:	00000793          	li	a5,0
   15168:	00000513          	li	a0,0
   1516c:	00800737          	lui	a4,0x800
   15170:	00e7f733          	and	a4,a5,a4
   15174:	00070e63          	beqz	a4,15190 <__subdf3+0x730>
   15178:	00140413          	addi	s0,s0,1
   1517c:	7ff00713          	li	a4,2047
   15180:	0ce40263          	beq	s0,a4,15244 <__subdf3+0x7e4>
   15184:	ff800737          	lui	a4,0xff800
   15188:	fff70713          	addi	a4,a4,-1 # ff7fffff <__BSS_END__+0xff7bde9b>
   1518c:	00e7f7b3          	and	a5,a5,a4
   15190:	01d79693          	slli	a3,a5,0x1d
   15194:	00355513          	srli	a0,a0,0x3
   15198:	7ff00713          	li	a4,2047
   1519c:	00a6e6b3          	or	a3,a3,a0
   151a0:	0037d793          	srli	a5,a5,0x3
   151a4:	00e41e63          	bne	s0,a4,151c0 <__subdf3+0x760>
   151a8:	00f6e6b3          	or	a3,a3,a5
   151ac:	00000793          	li	a5,0
   151b0:	00068863          	beqz	a3,151c0 <__subdf3+0x760>
   151b4:	000807b7          	lui	a5,0x80
   151b8:	00000693          	li	a3,0
   151bc:	00000493          	li	s1,0
   151c0:	01441713          	slli	a4,s0,0x14
   151c4:	7ff00637          	lui	a2,0x7ff00
   151c8:	00c79793          	slli	a5,a5,0xc
   151cc:	01c12083          	lw	ra,28(sp)
   151d0:	01812403          	lw	s0,24(sp)
   151d4:	00c77733          	and	a4,a4,a2
   151d8:	00c7d793          	srli	a5,a5,0xc
   151dc:	01f49493          	slli	s1,s1,0x1f
   151e0:	00f767b3          	or	a5,a4,a5
   151e4:	0097e733          	or	a4,a5,s1
   151e8:	01012903          	lw	s2,16(sp)
   151ec:	01412483          	lw	s1,20(sp)
   151f0:	00c12983          	lw	s3,12(sp)
   151f4:	00068513          	mv	a0,a3
   151f8:	00070593          	mv	a1,a4
   151fc:	02010113          	addi	sp,sp,32
   15200:	00008067          	ret
   15204:	00080413          	mv	s0,a6
   15208:	b29ff06f          	j	14d30 <__subdf3+0x2d0>
   1520c:	00070793          	mv	a5,a4
   15210:	00060513          	mv	a0,a2
   15214:	00080413          	mv	s0,a6
   15218:	da1ff06f          	j	14fb8 <__subdf3+0x558>
   1521c:	00000793          	li	a5,0
   15220:	00000513          	li	a0,0
   15224:	00000493          	li	s1,0
   15228:	f45ff06f          	j	1516c <__subdf3+0x70c>
   1522c:	00000793          	li	a5,0
   15230:	ff5ff06f          	j	15224 <__subdf3+0x7c4>
   15234:	00000513          	li	a0,0
   15238:	00000493          	li	s1,0
   1523c:	004007b7          	lui	a5,0x400
   15240:	b31ff06f          	j	14d70 <__subdf3+0x310>
   15244:	00000793          	li	a5,0
   15248:	00000513          	li	a0,0
   1524c:	f45ff06f          	j	15190 <__subdf3+0x730>

00015250 <__floatdidf>:
   15250:	fe010113          	addi	sp,sp,-32
   15254:	00112e23          	sw	ra,28(sp)
   15258:	00812c23          	sw	s0,24(sp)
   1525c:	00912a23          	sw	s1,20(sp)
   15260:	01212823          	sw	s2,16(sp)
   15264:	01312623          	sw	s3,12(sp)
   15268:	01412423          	sw	s4,8(sp)
   1526c:	01512223          	sw	s5,4(sp)
   15270:	01612023          	sw	s6,0(sp)
   15274:	00b567b3          	or	a5,a0,a1
   15278:	1a078463          	beqz	a5,15420 <__floatdidf+0x1d0>
   1527c:	00050413          	mv	s0,a0
   15280:	00058993          	mv	s3,a1
   15284:	01f5d913          	srli	s2,a1,0x1f
   15288:	0005da63          	bgez	a1,1529c <__floatdidf+0x4c>
   1528c:	00a037b3          	snez	a5,a0
   15290:	40b009b3          	neg	s3,a1
   15294:	40f989b3          	sub	s3,s3,a5
   15298:	40a00433          	neg	s0,a0
   1529c:	00098493          	mv	s1,s3
   152a0:	08098a63          	beqz	s3,15334 <__floatdidf+0xe4>
   152a4:	00098513          	mv	a0,s3
   152a8:	754010ef          	jal	ra,169fc <__clzsi2>
   152ac:	00050a93          	mv	s5,a0
   152b0:	43e00793          	li	a5,1086
   152b4:	41578a33          	sub	s4,a5,s5
   152b8:	43300793          	li	a5,1075
   152bc:	0947cc63          	blt	a5,s4,15354 <__floatdidf+0x104>
   152c0:	00b00793          	li	a5,11
   152c4:	02fa8463          	beq	s5,a5,152ec <__floatdidf+0x9c>
   152c8:	02a00793          	li	a5,42
   152cc:	0757cc63          	blt	a5,s5,15344 <__floatdidf+0xf4>
   152d0:	02b00493          	li	s1,43
   152d4:	ff5a8793          	addi	a5,s5,-11
   152d8:	415484b3          	sub	s1,s1,s5
   152dc:	009454b3          	srl	s1,s0,s1
   152e0:	00f999b3          	sll	s3,s3,a5
   152e4:	0134e4b3          	or	s1,s1,s3
   152e8:	00f41433          	sll	s0,s0,a5
   152ec:	00c49593          	slli	a1,s1,0xc
   152f0:	01c12083          	lw	ra,28(sp)
   152f4:	014a1793          	slli	a5,s4,0x14
   152f8:	00c5d593          	srli	a1,a1,0xc
   152fc:	00040513          	mv	a0,s0
   15300:	01812403          	lw	s0,24(sp)
   15304:	00b7e7b3          	or	a5,a5,a1
   15308:	01f91913          	slli	s2,s2,0x1f
   1530c:	0127e733          	or	a4,a5,s2
   15310:	01412483          	lw	s1,20(sp)
   15314:	01012903          	lw	s2,16(sp)
   15318:	00c12983          	lw	s3,12(sp)
   1531c:	00812a03          	lw	s4,8(sp)
   15320:	00412a83          	lw	s5,4(sp)
   15324:	00012b03          	lw	s6,0(sp)
   15328:	00070593          	mv	a1,a4
   1532c:	02010113          	addi	sp,sp,32
   15330:	00008067          	ret
   15334:	00040513          	mv	a0,s0
   15338:	6c4010ef          	jal	ra,169fc <__clzsi2>
   1533c:	02050a93          	addi	s5,a0,32
   15340:	f71ff06f          	j	152b0 <__floatdidf+0x60>
   15344:	fd5a8593          	addi	a1,s5,-43
   15348:	00b414b3          	sll	s1,s0,a1
   1534c:	00000413          	li	s0,0
   15350:	f9dff06f          	j	152ec <__floatdidf+0x9c>
   15354:	43600793          	li	a5,1078
   15358:	0547d063          	bge	a5,s4,15398 <__floatdidf+0x148>
   1535c:	00800613          	li	a2,8
   15360:	41560633          	sub	a2,a2,s5
   15364:	00040513          	mv	a0,s0
   15368:	00098593          	mv	a1,s3
   1536c:	620010ef          	jal	ra,1698c <__lshrdi3>
   15370:	00050b13          	mv	s6,a0
   15374:	00058493          	mv	s1,a1
   15378:	00040513          	mv	a0,s0
   1537c:	00098593          	mv	a1,s3
   15380:	038a8613          	addi	a2,s5,56
   15384:	640010ef          	jal	ra,169c4 <__ashldi3>
   15388:	00b56433          	or	s0,a0,a1
   1538c:	00803433          	snez	s0,s0
   15390:	01646433          	or	s0,s0,s6
   15394:	00048993          	mv	s3,s1
   15398:	00800793          	li	a5,8
   1539c:	0357d063          	bge	a5,s5,153bc <__floatdidf+0x16c>
   153a0:	02800713          	li	a4,40
   153a4:	ff8a8793          	addi	a5,s5,-8
   153a8:	41570733          	sub	a4,a4,s5
   153ac:	00e45733          	srl	a4,s0,a4
   153b0:	00f999b3          	sll	s3,s3,a5
   153b4:	013769b3          	or	s3,a4,s3
   153b8:	00f41433          	sll	s0,s0,a5
   153bc:	ff8005b7          	lui	a1,0xff800
   153c0:	fff58593          	addi	a1,a1,-1 # ff7fffff <__BSS_END__+0xff7bde9b>
   153c4:	00747793          	andi	a5,s0,7
   153c8:	00b9f5b3          	and	a1,s3,a1
   153cc:	02078063          	beqz	a5,153ec <__floatdidf+0x19c>
   153d0:	00f47793          	andi	a5,s0,15
   153d4:	00400713          	li	a4,4
   153d8:	00e78a63          	beq	a5,a4,153ec <__floatdidf+0x19c>
   153dc:	00440793          	addi	a5,s0,4
   153e0:	0087b433          	sltu	s0,a5,s0
   153e4:	008585b3          	add	a1,a1,s0
   153e8:	00078413          	mv	s0,a5
   153ec:	008007b7          	lui	a5,0x800
   153f0:	00f5f7b3          	and	a5,a1,a5
   153f4:	00078c63          	beqz	a5,1540c <__floatdidf+0x1bc>
   153f8:	ff8007b7          	lui	a5,0xff800
   153fc:	fff78793          	addi	a5,a5,-1 # ff7fffff <__BSS_END__+0xff7bde9b>
   15400:	00f5f5b3          	and	a1,a1,a5
   15404:	43f00793          	li	a5,1087
   15408:	41578a33          	sub	s4,a5,s5
   1540c:	00345413          	srli	s0,s0,0x3
   15410:	01d59793          	slli	a5,a1,0x1d
   15414:	0087e433          	or	s0,a5,s0
   15418:	0035d493          	srli	s1,a1,0x3
   1541c:	ed1ff06f          	j	152ec <__floatdidf+0x9c>
   15420:	00000493          	li	s1,0
   15424:	00000413          	li	s0,0
   15428:	00000a13          	li	s4,0
   1542c:	00000913          	li	s2,0
   15430:	ebdff06f          	j	152ec <__floatdidf+0x9c>

00015434 <__addsf3>:
   15434:	00800737          	lui	a4,0x800
   15438:	ff010113          	addi	sp,sp,-16
   1543c:	fff70713          	addi	a4,a4,-1 # 7fffff <__BSS_END__+0x7bde9b>
   15440:	00a777b3          	and	a5,a4,a0
   15444:	00812423          	sw	s0,8(sp)
   15448:	00912223          	sw	s1,4(sp)
   1544c:	01755413          	srli	s0,a0,0x17
   15450:	01f55493          	srli	s1,a0,0x1f
   15454:	0175d513          	srli	a0,a1,0x17
   15458:	00b77733          	and	a4,a4,a1
   1545c:	0ff47413          	zext.b	s0,s0
   15460:	0ff57513          	zext.b	a0,a0
   15464:	00112623          	sw	ra,12(sp)
   15468:	01212023          	sw	s2,0(sp)
   1546c:	01f5d593          	srli	a1,a1,0x1f
   15470:	00379793          	slli	a5,a5,0x3
   15474:	00371713          	slli	a4,a4,0x3
   15478:	40a406b3          	sub	a3,s0,a0
   1547c:	18b49663          	bne	s1,a1,15608 <__addsf3+0x1d4>
   15480:	0ad05863          	blez	a3,15530 <__addsf3+0xfc>
   15484:	04051063          	bnez	a0,154c4 <__addsf3+0x90>
   15488:	02070063          	beqz	a4,154a8 <__addsf3+0x74>
   1548c:	fff40693          	addi	a3,s0,-1
   15490:	00069863          	bnez	a3,154a0 <__addsf3+0x6c>
   15494:	00e787b3          	add	a5,a5,a4
   15498:	00100413          	li	s0,1
   1549c:	0600006f          	j	154fc <__addsf3+0xc8>
   154a0:	0ff00613          	li	a2,255
   154a4:	02c41863          	bne	s0,a2,154d4 <__addsf3+0xa0>
   154a8:	0077f713          	andi	a4,a5,7
   154ac:	34070a63          	beqz	a4,15800 <__addsf3+0x3cc>
   154b0:	00f7f713          	andi	a4,a5,15
   154b4:	00400693          	li	a3,4
   154b8:	34d70463          	beq	a4,a3,15800 <__addsf3+0x3cc>
   154bc:	00478793          	addi	a5,a5,4
   154c0:	3400006f          	j	15800 <__addsf3+0x3cc>
   154c4:	0ff00613          	li	a2,255
   154c8:	fec400e3          	beq	s0,a2,154a8 <__addsf3+0x74>
   154cc:	04000637          	lui	a2,0x4000
   154d0:	00c76733          	or	a4,a4,a2
   154d4:	01b00593          	li	a1,27
   154d8:	00100613          	li	a2,1
   154dc:	00d5ce63          	blt	a1,a3,154f8 <__addsf3+0xc4>
   154e0:	02000613          	li	a2,32
   154e4:	00d755b3          	srl	a1,a4,a3
   154e8:	40d606b3          	sub	a3,a2,a3
   154ec:	00d71733          	sll	a4,a4,a3
   154f0:	00e03733          	snez	a4,a4
   154f4:	00e5e633          	or	a2,a1,a4
   154f8:	00c787b3          	add	a5,a5,a2
   154fc:	04000737          	lui	a4,0x4000
   15500:	00e7f733          	and	a4,a5,a4
   15504:	fa0702e3          	beqz	a4,154a8 <__addsf3+0x74>
   15508:	00140413          	addi	s0,s0,1
   1550c:	0ff00713          	li	a4,255
   15510:	2ee40663          	beq	s0,a4,157fc <__addsf3+0x3c8>
